mads 2.1.8
PetsciiBoy3000.a65 -x -i:/Users/manuelvio/sviluppo/Mad-Pascal/base -o:petsciiboy.prg 
    37 					opt l+
   107
   108 				.print 'ZPAGE: ',zpage,'..',zpend-1
   108 				ZPAGE: $0002..$0055
   109
   110 				.print 'RTBUF: ',@buf,'..',@buf+255
   110 				RTBUF: $0800..$08FF
   111
   112 				.print 'RTLIB: ',RTLIB,'..',*-1
   112 				RTLIB: $0BA6..$1617
   113
   114 				; ------------------------------------------------------------
   115
   116 1618			START
   117 1618 BA				tsx
   118 1619 8E 10 3D			stx MAIN.@halt+1
   119
   120 = 00CE			VLEN	= VARDATASIZE-VARINITSIZE
   121 = 9BFC			VADR	= DATAORIGIN+VARINITSIZE
   122
   123 					ift (VLEN > 0) && (VLEN <= 256)
   124 161C A2 32			ldx #256-VLEN
   125 161E A9 00			lda #$00
   126 1620 9D CA 9B E8 D0 FA		sta:rne VADR+VLEN-256,x+
   127 					eli VLEN>256
   128 					m@init
   129 					eif
   130
   131 				.ifdef psptr
   132 					mwa #PROGRAMSTACK psptr
   133 				.fi
   134
   135 1626 A9 0E			lda #$0e
   136 1628 20 D2 FF			jsr $ffd2					; shifted charset
   137
   138 162B A2 00			ldx #$00
   139 162D 86 02			stx bp						; BP = 0
   140
   141 162F CA				dex						; X = 255
   142
   143 1630				UNITINITIALIZATION
Macro: UNITINITIALIZATION [Source: PetsciiBoy3000.a65]
     3 1630 20 F1 18			jsr MAIN.SYSTEM.@UnitInit
Source: PetsciiBoy3000.a65
   144
   145 1633			.local	MAIN						; PROCEDURE
   146
   147 1633 4C EF 3C			jmp l_027A
   148
   149 				; ------------------------------------------------------------
   150
   151 1636			.local	SYSTEM						; UNIT
   152
   153 1636			.local	PEEK						; FUNCTION | ASSEMBLER | REGISTER
   154
   155 				; ------------------------------------------------------------
   156
   157 				; Generate Assignment for WORD / SMALLINT / SHORTREAL / POINTER
   158 				; as Pointer
   159 1636 B5 16			lda :STACKORIGIN,x
   160 1638 85 0A			sta A
   161 163A B5 26			lda :STACKORIGIN+STACKWIDTH,x
   162 163C 85 0B			sta A+1
   163 163E CA				dex
   164 163F			@main
   165
   166 				; -------------------  ASM Block 00000002  -------------------
   167
   168 163F A0 00			ldy #0
   169 1641 B1 0A 85 12			mva (:edx),y Result
   170
   171 1645			@exit
   172
   173 				; ------------------------------------------------------------
   174
   175 				; Push BYTE / CHAR / SHORTINT / BOOLEAN
   176 				; as Pointer
   177
   178 1645 E8				inx
   179 1646 A5 12 95 16			mva RESULT :STACKORIGIN,x
   180
   181 					.ifdef @new
   182 					lda <@VarData
   183 					sta :ztmp
   184 					lda >@VarData
   185 					ldy #@VarDataSize-1
   186 					jmp @FreeMem
   187 					eif
   188
   189 				; ------------------------------------------------------------
   190
   191 = 000A			A	= :EDX
   192 = 0012			RESULT	= :STACKORIGIN-4
   193
   194 164A 60				rts						; ret
   195 				.endl
   196
   197 164B			.local	EXP						; FUNCTION | OVERLOAD
   198 164B			.local	@01018F000
   199
   200 				; optimize OK (SYSTEM), line = 973
   201
   202 164B AD EC 3D			lda X
   203 164E 8D F8 3D			sta FRACTION
   204 1651 AD ED 3D			lda X+1
   205 1654 8D F9 3D			sta FRACTION+1
   206 1657 AD EE 3D			lda X+2
   207 165A 8D FA 3D			sta FRACTION+2
   208 165D AD EF 3D			lda X+3
   209 1660 8D FB 3D			sta FRACTION+3
   210
   211 				; optimize OK (SYSTEM), line = 974
   212
   213 1663 A9 00			lda #$00
   214 1665 85 0A			sta :FP2MAN0
   215 1667 85 0B			sta :FP2MAN1
   216 1669 A9 80			lda #$80
   217 166B 85 0C			sta :FP2MAN2
   218 166D A9 3F			lda #$3F
   219 166F 85 0D			sta :FP2MAN3
   220 1671 AD EC 3D			lda X
   221 1674 85 06			sta :FP1MAN0
   222 1676 AD ED 3D			lda X+1
   223 1679 85 07			sta :FP1MAN1
   224 167B AD EE 3D			lda X+2
   225 167E 85 08			sta :FP1MAN2
   226 1680 AD EF 3D			lda X+3
   227 1683 85 09			sta :FP1MAN3
   228 1685 20 8C 0F			jsr @FADD
   229 1688 A5 0E			lda :FPMAN0
   230 168A 8D F4 3D			sta P
   231 168D A5 0F			lda :FPMAN1
   232 168F 8D F5 3D			sta P+1
   233 1692 A5 10			lda :FPMAN2
   234 1694 8D F6 3D			sta P+2
   235 1697 A5 11			lda :FPMAN3
   236 1699 8D F7 3D			sta P+3
   237
   238 				; optimize OK (SYSTEM), line = 975
   239
   240 169C A9 00			lda #$00
   241 169E 8D FC 3D			sta I
   242 16A1 8D FD 3D			sta I+1
   243 16A4 A9 80			lda #$80
   244 16A6 8D FE 3D			sta I+2
   245 16A9 A9 3F			lda #$3F
   246 16AB 8D FF 3D			sta I+3
   247
   248 				; --- WhileProlog
   249 16AE 4C A7 17			jmp l_02A5
   250 16B1			l_02A6
   251
   252 				; optimize OK (SYSTEM), line = 978
   253
   254 16B1 A9 00			lda #$00
   255 16B3 85 0A			sta :FP2MAN0
   256 16B5 85 0B			sta :FP2MAN1
   257 16B7 A9 80			lda #$80
   258 16B9 85 0C			sta :FP2MAN2
   259 16BB A9 3F			lda #$3F
   260 16BD 85 0D			sta :FP2MAN3
   261 16BF AD FC 3D			lda I
   262 16C2 85 06			sta :FP1MAN0
   263 16C4 AD FD 3D			lda I+1
   264 16C7 85 07			sta :FP1MAN1
   265 16C9 AD FE 3D			lda I+2
   266 16CC 85 08			sta :FP1MAN2
   267 16CE AD FF 3D			lda I+3
   268 16D1 85 09			sta :FP1MAN3
   269 16D3 20 8C 0F			jsr @FADD
   270 16D6 A5 0E			lda :FPMAN0
   271 16D8 8D FC 3D			sta I
   272 16DB A5 0F			lda :FPMAN1
   273 16DD 8D FD 3D			sta I+1
   274 16E0 A5 10			lda :FPMAN2
   275 16E2 8D FE 3D			sta I+2
   276 16E5 A5 11			lda :FPMAN3
   277 16E7 8D FF 3D			sta I+3
   278
   279 				; optimize OK (SYSTEM), line = 979
   280
   281 16EA AD FC 3D			lda I
   282 16ED 85 0A			sta :FP2MAN0
   283 16EF AD FD 3D			lda I+1
   284 16F2 85 0B			sta :FP2MAN1
   285 16F4 AD FE 3D			lda I+2
   286 16F7 85 0C			sta :FP2MAN2
   287 16F9 AD FF 3D			lda I+3
   288 16FC 85 0D			sta :FP2MAN3
   289 16FE AD EC 3D			lda X
   290 1701 85 06			sta :FP1MAN0
   291 1703 AD ED 3D			lda X+1
   292 1706 85 07			sta :FP1MAN1
   293 1708 AD EE 3D			lda X+2
   294 170B 85 08			sta :FP1MAN2
   295 170D AD EF 3D			lda X+3
   296 1710 85 09			sta :FP1MAN3
   297 1712 20 99 11			jsr @FDIV
   298 1715 A5 0E			lda :FPMAN0
   299 1717 85 0A			sta :FP2MAN0
   300 1719 A5 0F			lda :FPMAN1
   301 171B 85 0B			sta :FP2MAN1
   302 171D A5 10			lda :FPMAN2
   303 171F 85 0C			sta :FP2MAN2
   304 1721 A5 11			lda :FPMAN3
   305 1723 85 0D			sta :FP2MAN3
   306 1725 AD F8 3D			lda FRACTION
   307 1728 85 06			sta :FP1MAN0
   308 172A AD F9 3D			lda FRACTION+1
   309 172D 85 07			sta :FP1MAN1
   310 172F AD FA 3D			lda FRACTION+2
   311 1732 85 08			sta :FP1MAN2
   312 1734 AD FB 3D			lda FRACTION+3
   313 1737 85 09			sta :FP1MAN3
   314 1739 20 F8 10			jsr @FMUL
   315 173C A5 0E			lda :FPMAN0
   316 173E 8D F8 3D			sta FRACTION
   317 1741 A5 0F			lda :FPMAN1
   318 1743 8D F9 3D			sta FRACTION+1
   319 1746 A5 10			lda :FPMAN2
   320 1748 8D FA 3D			sta FRACTION+2
   321 174B A5 11			lda :FPMAN3
   322 174D 8D FB 3D			sta FRACTION+3
   323
   324 				; optimize OK (SYSTEM), line = 980
   325
   326 1750 AD F4 3D			lda P
   327 1753 8D 00 3E			sta L
   328 1756 AD F5 3D			lda P+1
   329 1759 8D 01 3E			sta L+1
   330 175C AD F6 3D			lda P+2
   331 175F 8D 02 3E			sta L+2
   332 1762 AD F7 3D			lda P+3
   333 1765 8D 03 3E			sta L+3
   334
   335 				; optimize OK (SYSTEM), line = 981
   336
   337 1768 AD F8 3D			lda FRACTION
   338 176B 85 0A			sta :FP2MAN0
   339 176D AD F9 3D			lda FRACTION+1
   340 1770 85 0B			sta :FP2MAN1
   341 1772 AD FA 3D			lda FRACTION+2
   342 1775 85 0C			sta :FP2MAN2
   343 1777 AD FB 3D			lda FRACTION+3
   344 177A 85 0D			sta :FP2MAN3
   345 177C AD F4 3D			lda P
   346 177F 85 06			sta :FP1MAN0
   347 1781 AD F5 3D			lda P+1
   348 1784 85 07			sta :FP1MAN1
   349 1786 AD F6 3D			lda P+2
   350 1789 85 08			sta :FP1MAN2
   351 178B AD F7 3D			lda P+3
   352 178E 85 09			sta :FP1MAN3
   353 1790 20 8C 0F			jsr @FADD
   354 1793 A5 0E			lda :FPMAN0
   355 1795 8D F4 3D			sta P
   356 1798 A5 0F			lda :FPMAN1
   357 179A 8D F5 3D			sta P+1
   358 179D A5 10			lda :FPMAN2
   359 179F 8D F6 3D			sta P+2
   360 17A2 A5 11			lda :FPMAN3
   361 17A4 8D F7 3D			sta P+3
   362 17A7			l_02A5
   363
   364 				; optimize OK (SYSTEM), line = 977
   365
   366 17A7 AD F4 3D			lda P
   367 17AA 85 06			sta @FCMPL.A
   368 17AC AD F5 3D			lda P+1
   369 17AF 85 07			sta @FCMPL.A+1
   370 17B1 AD F6 3D			lda P+2
   371 17B4 85 08			sta @FCMPL.A+2
   372 17B6 AD F7 3D			lda P+3
   373 17B9 85 09			sta @FCMPL.A+3
   374 17BB AD 00 3E			lda L
   375 17BE 85 0E			sta @FCMPL.B
   376 17C0 AD 01 3E			lda L+1
   377 17C3 85 0F			sta @FCMPL.B+1
   378 17C5 AD 02 3E			lda L+2
   379 17C8 85 10			sta @FCMPL.B+2
   380 17CA AD 03 3E			lda L+3
   381 17CD 85 11			sta @FCMPL.B+3
   382 17CF 20 15 12			jsr @FCMPL
   383 17D2 F0 03 4C B1 16		jne l_02A6
   384
   385 				; optimize OK (SYSTEM), line = 984
   386
   387 17D7 AD F4 3D			lda P
   388 17DA 8D F0 3D			sta RESULT
   389 17DD AD F5 3D			lda P+1
   390 17E0 8D F1 3D			sta RESULT+1
   391 17E3 AD F6 3D			lda P+2
   392 17E6 8D F2 3D			sta RESULT+2
   393 17E9 AD F7 3D			lda P+3
   394 17EC 8D F3 3D			sta RESULT+3
   395 17EF			@exit
   396
   397 				; ------------------------------------------------------------
   398
   399 = 3DEC			X	= DATAORIGIN+$000B
   400 = 3DF0			RESULT	= DATAORIGIN+$000F
   401 = 3DF4			P	= DATAORIGIN+$0013
   402 = 3DF8			FRACTION	= DATAORIGIN+$0017
   403 = 3DFC			I	= DATAORIGIN+$001B
   404 = 3E00			L	= DATAORIGIN+$001F
   405
   406 = 3DEC			@VarData	= X
   407 = 0014			@VarDataSize	= 20
   408
   409 17EF 60				rts						; ret
   410 				.endl
   411 				.endl							; overload
   412
   413 17F0			.local	FLOATTOSTR					; FUNCTION | ASSEMBLER
   414
   415 				; ------------------------------------------------------------
   416
   417 				; Generate Assignment for CARDINAL / INTEGER / REAL / SINGLE
   418 				; as Pointer
   419 17F0 B5 16			lda :STACKORIGIN,x
   420 17F2 8D 04 3E			sta A
   421 17F5 B5 26			lda :STACKORIGIN+STACKWIDTH,x
   422 17F7 8D 05 3E			sta A+1
   423 17FA B5 36			lda :STACKORIGIN+STACKWIDTH*2,x
   424 17FC 8D 06 3E			sta A+2
   425 17FF B5 46			lda :STACKORIGIN+STACKWIDTH*3,x
   426 1801 8D 07 3E			sta A+3
   427 1804 CA				dex
   428 1805			@main
   429
   430 				; -------------------  ASM Block 00000022  -------------------
   431
   432 1805 8A 48			txa:pha
   433
   434 1807 E8				inx		; parameter A
   435
   436 					@ValueToStr #@printREAL
   436 				 LDY> @PRINTREAL\ LDA< @PRINTREAL\ JSR @VALUETOSTR
   436 1808 A0 14		 LDY> @PRINTREAL
   436 180A A9 DC		 LDA< @PRINTREAL
   436 180C 20 4D 13		 JSR @VALUETOSTR
   437
   438 180F A2 20			ldx #$20
   439 1811 BD 00 08 9D 08 3E + 	mva:rpl @buf,x adr.Result,x-
   440
   441 181A 68 AA			pla:tax
   442
   443 181C			@exit
   444
   445 				; ------------------------------------------------------------
   446
   447 				; Push WORD / SMALLINT / SHORTREAL / POINTER
   448 				; as Pointer
   449
   450 181C E8				inx
   451 181D AD 28 18 95 16		mva RESULT :STACKORIGIN,x
   452 1822 AD 29 18 95 26		mva RESULT+1 :STACKORIGIN+STACKWIDTH,x
   453
   454 					.ifdef @new
   455 					lda <@VarData
   456 					sta :ztmp
   457 					lda >@VarData
   458 					ldy #@VarDataSize-1
   459 					jmp @FreeMem
   460 					eif
   461
   462 				; ------------------------------------------------------------
   463
   464 = 3E04			A	= DATAORIGIN+$0023
   465 = 3E08			adr.RESULT	= [DATAORIGIN+$0027] .array [33]
   466 1827			.var RESULT	= adr.RESULT .word
   467
   468 = 3E04			@VarData	= A
   469 = 0025			@VarDataSize	= 37
   470
   471 1827 60				rts						; ret
   472 = 1828 08 3E		RESULT
   472 				.endl
   473
   474 182A			.local	POKE						; PROCEDURE | ASSEMBLER | REGISTER
   475
   476 				; ------------------------------------------------------------
   477
   478 				; Generate Assignment for WORD / SMALLINT / SHORTREAL / POINTER
   479 				; as Pointer
   480 182A B5 16			lda :STACKORIGIN,x
   481 182C 85 0A			sta A
   482 182E B5 26			lda :STACKORIGIN+STACKWIDTH,x
   483 1830 85 0B			sta A+1
   484 1832 CA				dex
   485 1833 30 05			jmi @main
   486
   487 				; ------------------------------------------------------------
   488
   489 				; Generate Assignment for BYTE / CHAR / SHORTINT / BOOLEAN
   490 				; as Pointer
   491 1835 B5 16			lda :STACKORIGIN,x
   492 1837 85 0E			sta VALUE
   493 1839 CA				dex
   494 183A			@main
   495
   496 				; -------------------  ASM Block 00000025  -------------------
   497
   498 183A A0 00			ldy #0
   499 183C A5 0E 91 0A			mva value (:edx),y
   500
   501 				; ------------------------------------------------------------
   502
   503 = 000A			A	= :EDX
   504 = 000E			VALUE	= :ECX
   505
   506 1840			@exit
   507 					.ifdef @new
   508 					lda <@VarData
   509 					sta :ztmp
   510 					lda >@VarData
   511 					ldy #@VarDataSize-1
   512 					jmp @FreeMem
   513 					els
   514 1840 60				rts						; ret
   515 					eif
   516 				.endl
   517
   518 1841			.local	MOVE						; PROCEDURE | ASSEMBLER | OVERLOAD | REGISTER | INLINE
   519 1841			.local	@03018100001880000188000
   520
   521 					.MACRO m@INLINE
   522 				
   523 				; -------------------  ASM Block 00000034  -------------------
   524 				
   525 					jsr @move
   526 				
   527 					.ENDM
   528
   529 				; ------------------------------------------------------------
   530
   531 = 000A			SOURCE	= :EDX
   532 = 000E			DEST	= :ECX
   533 = 0006			COUNT	= :EAX
   534
   535 1841			@exit
   536 				.endl
   537 				.endl							; overload
   538
   539 1841			.local	MOVE						; PROCEDURE | ASSEMBLER | OVERLOAD | REGISTER | INLINE
   540 1841			.local	@03018100003000000300000
   541
   542 					.MACRO m@INLINE
   543 				
   544 				; -------------------  ASM Block 00000035  -------------------
   545 				
   546 					jsr @move
   547 				
   548 					.ENDM
   549
   550 				; ------------------------------------------------------------
   551
   552 = 000A			SOURCE	= :EDX
   553 = 000E			DEST	= :ECX
   554 = 0006			COUNT	= :EAX
   555
   556 1841			@exit
   557 				.endl
   558 				.endl							; overload
   559
   560 1841			.local	SPACE						; FUNCTION | ASSEMBLER
   561 1841 8D 29 3E			sta B
   562
   563 				; -------------------  ASM Block 00000038  -------------------
   564
   565 1844 A0 00			ldy #0
   566 1846 A9 20			lda #' '
   567 1848 99 00 08 C8 D0 FA		sta:rne @buf,y+
   568
   569 184E AD 29 3E 8D 00 08		mva b @buf
   570
   571 1854 A9 00 8D 2A 3E A9 + 	mwa #@buf Result
   572
   573 185E			@exit
   574
   575 				; ------------------------------------------------------------
   576
   577 = 3E29			B	= DATAORIGIN+$0048
   578 = 3E2A			RESULT	= DATAORIGIN+$0049
   579
   580 = 3E29			@VarData	= B
   581 = 0001			@VarDataSize	= 1
   582
   583 185E 60				rts						; ret
   584 				.endl
   585
   586 185F			.local	SETLENGTH					; PROCEDURE | ASSEMBLER | REGISTER
   587
   588 				; -------------------  ASM Block 00000040  -------------------
   589
   590 185F A0 00			ldy #0
   591 1861 A5 0E 91 0A			mva Len (:edx),y
   592
   593 				; ------------------------------------------------------------
   594
   595 = 000A			S	= :EDX
   596 = 000E			LEN	= :ECX
   597
   598 1865			@exit
   599 					.ifdef @new
   600 					lda <@VarData
   601 					sta :ztmp
   602 					lda >@VarData
   603 					ldy #@VarDataSize-1
   604 					jmp @FreeMem
   605 					els
   606 1865 60				rts						; ret
   607 					eif
   608 				.endl
   609
   610 1866			.local	PAUSE						; PROCEDURE | ASSEMBLER | OVERLOAD
   611 1866			.local	@010181000
   612
   613 				; -------------------  ASM Block 00000044  -------------------
   614
   615 1866 AD 2C 3E		loop	lda n
   616 1869 0D 2D 3E			ora n+1
   617 186C F0 18			beq stop
   618
   619 186E 2C 11 D0		w1	bit vic_cr1
   620 1871 10 FB			bpl w1
   621
   622 1873 2C 11 D0		w2	bit vic_cr1
   623 1876 30 FB			bmi w2
   624
   625 1878 AD 2C 3E D0 03 CE + 	dew n
   626
   627 1883 4C 66 18			jmp loop
   628 1886			stop
   629
   630 				; ------------------------------------------------------------
   631
   632 = 3E2C			N	= DATAORIGIN+$004B
   633
   634 = 3E2C			@VarData	= N
   635 = 0002			@VarDataSize	= 2
   636
   637 1886			@exit
   638 					.ifdef @new
   639 					lda <@VarData
   640 					sta :ztmp
   641 					lda >@VarData
   642 					ldy #@VarDataSize-1
   643 					jmp @FreeMem
   644 					els
   645 1886 60				rts						; ret
   646 					eif
   647 				.endl
   648 				.endl							; overload
   649
   650 1887			.local	RANDOMIZE					; PROCEDURE | ASSEMBLER
   651
   652 				; -------------------  ASM Block 00000045  -------------------
   653
   654 1887 AD 0A D2 8D EA 3D		mva $d20a RndSeed
   655 188D A9 00 8D EB 3D		mva #$00  RndSeed+1
   656
   657 1892			@exit
   658 					.ifdef @new
   659 					lda <@VarData
   660 					sta :ztmp
   661 					lda >@VarData
   662 					ldy #@VarDataSize-1
   663 					jmp @FreeMem
   664 					els
   665 1892 60				rts						; ret
   666 					eif
   667 				.endl
   668
   669 1893			.local	RANDOMF						; FUNCTION
   670
   671 				; -------------------  ASM Block 00000047  -------------------
   672
   673 1893 AD 04 DC			lda $DC04	//CIA#1 Timer A Lo byte
   674 1896 4D 05 DC			eor $DC05	//CIA#1 Timer A Hi byte
   675 1899 4D 04 DD			eor $DD04	//CIA#2 Timer A Lo byte
   676 189C 8D 2F 3E			sta Result+1
   677
   678 189F 6D 05 DD			adc $DD05	//CIA#2 Timer A Hi byte
   679 18A2 4D 06 DD			eor $DD06	//CIA#2 Timer B Lo byte
   680 18A5 4D 07 DD			eor $DD07	//CIA#2 Timer B Hi byte
   681 18A8 29 7F			and #$7f
   682 18AA 8D 30 3E			sta Result+2
   683
   684 18AD A9 00			lda #$00
   685 18AF 8D 2E 3E			sta Result
   686 18B2 A9 3F			lda #$3f
   687 18B4 8D 31 3E			sta Result+3
   688 				 
   689 				; optimize OK (system_c64.inc), line = 107
   690
   691 18B7 AD 2E 3E			lda RESULT
   692 18BA 85 0A			sta :FP2MAN0
   693 18BC AD 2F 3E			lda RESULT+1
   694 18BF 85 0B			sta :FP2MAN1
   695 18C1 AD 30 3E			lda RESULT+2
   696 18C4 85 0C			sta :FP2MAN2
   697 18C6 AD 31 3E			lda RESULT+3
   698 18C9 85 0D			sta :FP2MAN3
   699 18CB A9 00			lda #$00
   700 18CD 85 06			sta :FP1MAN0
   701 18CF 85 07			sta :FP1MAN1
   702 18D1 A9 80			lda #$80
   703 18D3 85 08			sta :FP1MAN2
   704 18D5 A9 3F			lda #$3F
   705 18D7 85 09			sta :FP1MAN3
   706 18D9 20 91 0F			jsr @FSUB
   707 18DC A5 0E			lda :FPMAN0
   708 18DE 8D 2E 3E			sta RESULT
   709 18E1 A5 0F			lda :FPMAN1
   710 18E3 8D 2F 3E			sta RESULT+1
   711 18E6 A5 10			lda :FPMAN2
   712 18E8 8D 30 3E			sta RESULT+2
   713 18EB A5 11			lda :FPMAN3
   714 18ED 8D 31 3E			sta RESULT+3
   715 18F0			@exit
   716
   717 				; ------------------------------------------------------------
   718
   719 = 3E2E			RESULT	= DATAORIGIN+$004D
   720
   721 18F0 60				rts						; ret
   722 				.endl
   723
   724 				; ------------------------------------------------------------
   725 				; ------------------------------------------------------------
   726 18F1			@UnitInit
   727
   728 18F1 60				rts
   729
   730 				; ------------------------------------------------------------
   731
   732 = 0648			M_PI_2	= $0648
   733 = 0192			D_PI_2	= $0192
   734 = 0004			D_PI_180	= $04
   735 = 0004			FMOPENREAD	= $04
   736 = 0008			FMOPENWRITE	= $08
   737 = 0009			FMOPENAPPEND	= $09
   738 = 000C			FMOPENREADWRITE	= $0C
   739 = 3DE1			DATESEPARATOR	= DATAORIGIN+$0000
   740 = 3DE2			FILEMODE	= DATAORIGIN+$0001
   741 = 3DE3			GRAPHMODE	= DATAORIGIN+$0002
   742 = 3DE4			IORESULT	= DATAORIGIN+$0003
   743 = 3DE5			EOLN	= DATAORIGIN+$0004
   744 = 3DE6			SCREENWIDTH	= DATAORIGIN+$0005
   745 = 3DE8			SCREENHEIGHT	= DATAORIGIN+$0007
   746 = 0000			adr.MEM	= $00
   747 18F2			.var MEM	= adr.MEM .word
   748 = 3DEA			RNDSEED	= DATAORIGIN+$0009
   749
   750 = 18F2 00 00		MEM
   750 				.endl							; UNIT SYSTEM
   751
   752 				; ------------------------------------------------------------
   753
   754 18F4			.local	CRT						; UNIT
   755
   756 18F4			.local	CLRSCR						; PROCEDURE
   757
   758 				; -------------------  ASM Block 00000060  -------------------
   759
   760 18F4 20 15 16			jsr @ClrScr
   761 				 
   762 18F7			@exit
   763 					.ifdef @new
   764 					lda <@VarData
   765 					sta :ztmp
   766 					lda >@VarData
   767 					ldy #@VarDataSize-1
   768 					jmp @FreeMem
   769 					els
   770 18F7 60				rts						; ret
   771 					eif
   772 				.endl
   773
   774 18F8			.local	READKEY						; FUNCTION | ASSEMBLER
   775
   776 				; -------------------  ASM Block 00000061  -------------------
   777
   778 18F8 A5 CB		getkey	lda $cb
   779 18FA C9 40			cmp #$40
   780 18FC F0 FA			beq getkey
   781
   782 18FE 90 02			scc
   783 1900 49 20			eor #%00100000
   784
   785 1902 8D 32 3E			sta Result
   786
   787 1905			@exit
   788
   789 				; ------------------------------------------------------------
   790
   791 = 3E32			RESULT	= DATAORIGIN+$0051
   792
   793 1905 60				rts						; ret
   794 				.endl
   795
   796 1906			.local	KEYPRESSED					; FUNCTION | ASSEMBLER
   797
   798 				; -------------------  ASM Block 00000065  -------------------
   799
   800 1906 8A 48			txa:pha
   801
   802 1908 20 42 F1			jsr $F142
   803 190B 85 CB			sta $cb
   804
   805 190D F0 02			seq
   806 190F A9 01			lda #1
   807 1911 8D 33 3E			sta Result
   808
   809 1914 68 AA			pla:tax
   810
   811 1916			@exit
   812
   813 				; ------------------------------------------------------------
   814
   815 = 3E33			RESULT	= DATAORIGIN+$0052
   816
   817 1916 60				rts						; ret
   818 				.endl
   819
   820 1917			.local	GOTOXY						; PROCEDURE | ASSEMBLER
   821
   822 				; -------------------  ASM Block 00000066  -------------------
   823
   824 1917 8A 48			txa:pha
   825 1919 18				clc
   826
   827 191A AE 35 3E			ldx y
   828 191D F0 01			seq
   829 191F CA				dex
   830
   831 1920 AC 34 3E			ldy x
   832 1923 F0 01			seq
   833 1925 88				dey
   834
   835 1926 20 F0 FF			jsr $FFF0	; PLOT
   836
   837 1929 68 AA			pla:tax
   838
   839 				; ------------------------------------------------------------
   840
   841 = 3E34			X	= DATAORIGIN+$0053
   842 = 3E35			Y	= DATAORIGIN+$0054
   843
   844 = 3E34			@VarData	= X
   845 = 0002			@VarDataSize	= 2
   846
   847 192B			@exit
   848 					.ifdef @new
   849 					lda <@VarData
   850 					sta :ztmp
   851 					lda >@VarData
   852 					ldy #@VarDataSize-1
   853 					jmp @FreeMem
   854 					els
   855 192B 60				rts						; ret
   856 					eif
   857 				.endl
   858
   859 192C			.local	WHEREX						; FUNCTION | ASSEMBLER
   860
   861 				; -------------------  ASM Block 00000067  -------------------
   862
   863 192C 8A 48			txa:pha
   864 192E 38				sec
   865
   866 192F 20 F0 FF			jsr $FFF0	; PLOT
   867 1932 C8				iny
   868 1933 8C 36 3E			sty Result
   869
   870 1936 68 AA			pla:tax
   871
   872 1938			@exit
   873
   874 				; ------------------------------------------------------------
   875
   876 = 3E36			RESULT	= DATAORIGIN+$0055
   877
   878 1938 60				rts						; ret
   879 				.endl
   880
   881 1939			.local	WHEREY						; FUNCTION | ASSEMBLER
   882
   883 				; -------------------  ASM Block 00000068  -------------------
   884
   885 1939 8A 48			txa:pha
   886 193B 38				sec
   887
   888 193C 20 F0 FF			jsr $FFF0	; PLOT
   889 193F E8				inx
   890 1940 8E 37 3E			stx Result
   891
   892 1943 68 AA			pla:tax
   893
   894 1945			@exit
   895
   896 				; ------------------------------------------------------------
   897
   898 = 3E37			RESULT	= DATAORIGIN+$0056
   899
   900 1945 60				rts						; ret
   901 				.endl
   902
   903 				; ------------------------------------------------------------
   904
   905 = 0000			BLACK	= $00
   906 = 0001			WHITE	= $01
   907 = 0002			RED	= $02
   908 = 0003			CYAN	= $03
   909 = 0004			PURPLE	= $04
   910 = 0005			GREEN	= $05
   911 = 0006			BLUE	= $06
   912 = 0007			YELLOW	= $07
   913 = 0008			ORANGE	= $08
   914 = 0009			BROWN	= $09
   915 = 000A			LIGHT_RED	= $0A
   916 = 000B			DARK_GREY	= $0B
   917 = 000C			GREY	= $0C
   918 = 000D			LIGHT_GREEN	= $0D
   919 = 000E			LIGHT_BLUE	= $0E
   920 = 000F			LIGHT_GREY	= $0F
   921 = 0000			BW40	= $00
   922 = 0001			CO40	= $01
   923 = 0002			BW80	= $02
   924 = 0003			CO80	= $03
   925 = 0007			MONO	= $07
   926 = 0001			C40	= $01
   927 = 0003			C80	= $03
   928 = 0080			BLINK	= $80
   929
   930 				.endl							; UNIT CRT
   931
   932 				; ------------------------------------------------------------
   933
   934 1946			.local	DOS						; UNIT
   935
   936 				; ------------------------------------------------------------
   937
   938 = D014			PALNTSC	= $D014
   939
   940 				.endl							; UNIT DOS
   941
   942 				; ------------------------------------------------------------
   943
   944 1946			.local	STRUTILS					; UNIT
   945
   946 				; ------------------------------------------------------------
   947
   948 				.endl							; UNIT STRUTILS
   949
   950 				; ------------------------------------------------------------
   951
   952 1946			.local	SYSUTILS					; UNIT
   953
   954 1946			.local	BYTETOSTR					; FUNCTION | ASSEMBLER
   955 1946 8D 38 3E			sta A
   956
   957 				; -------------------  ASM Block 00000081  -------------------
   958
   959 1949 8A 48			txa:pha
   960
   961 194B AD 38 3E			lda a
   962 194E A0 2F			ldy #$2f
   963 1950 A2 3A			ldx #$3a
   964 1952 38				sec
   965 1953 C8			@	iny
   966 1954 E9 64			sbc #100
   967 1956 B0 FB			bcs @-
   968 1958 CA			@	dex
   969 1959 69 0A			adc #10
   970 195B 30 FB			bmi @-
   971 195D 69 2F			adc #$2f
   972
   973 195F 8D 3C 3E			sta adr.Result+3
   974 1962 8E 3B 3E			stx adr.Result+2
   975 1965 8C 3A 3E			sty adr.Result+1
   976
   977 1968 A0 03			ldy #3
   978 196A C0 01		lp	cpy #1
   979 196C F0 16			beq skp
   980 196E AD 3A 3E			lda adr.Result+1
   981 1971 C9 30			cmp #$30
   982 1973 D0 0F			bne skp
   983
   984 1975 AD 3B 3E			lda adr.Result+2
   985 1978 8D 3A 3E			sta adr.Result+1
   986 197B AD 3C 3E			lda adr.Result+3
   987 197E 8D 3B 3E			sta adr.Result+2
   988
   989 1981 88				dey
   990 1982 D0 E6			bne lp
   991
   992 1984 8C 39 3E		skp	sty adr.Result
   993
   994 1987 68 AA			pla:tax
   995
   996 1989			@exit
   997
   998 				; ------------------------------------------------------------
   999
  1000 = 3E38			A	= DATAORIGIN+$0057
  1001 = 3E39			adr.RESULT	= [DATAORIGIN+$0058] .array [33]
  1002 1989			.var RESULT	= adr.RESULT .word
  1003
  1004 = 3E38			@VarData	= A
  1005 = 0022			@VarDataSize	= 34
  1006
  1007 1989 60				rts						; ret
  1008 = 198A 39 3E		RESULT
  1008 				.endl
  1009
  1010 198C			.local	INTTOSTR					; FUNCTION | ASSEMBLER | OVERLOAD
  1011 198C			.local	@010182000
  1012
  1013 				; ------------------------------------------------------------
  1014
  1015 				; Generate Assignment for CARDINAL / INTEGER / REAL / SINGLE
  1016 				; as Pointer
  1017 198C B5 16			lda :STACKORIGIN,x
  1018 198E 8D 5A 3E			sta A
  1019 1991 B5 26			lda :STACKORIGIN+STACKWIDTH,x
  1020 1993 8D 5B 3E			sta A+1
  1021 1996 B5 36			lda :STACKORIGIN+STACKWIDTH*2,x
  1022 1998 8D 5C 3E			sta A+2
  1023 199B B5 46			lda :STACKORIGIN+STACKWIDTH*3,x
  1024 199D 8D 5D 3E			sta A+3
  1025 19A0 CA				dex
  1026 19A1			@main
  1027
  1028 				; -------------------  ASM Block 00000083  -------------------
  1029
  1030 19A1 8A 48			txa:pha
  1031
  1032 19A3 E8				inx
  1033
  1034 					@ValueToStr #@printCARD
  1034 				 LDY> @PRINTCARD\ LDA< @PRINTCARD\ JSR @VALUETOSTR
  1034 19A4 A0 14		 LDY> @PRINTCARD
  1034 19A6 A9 43		 LDA< @PRINTCARD
  1034 19A8 20 4D 13		 JSR @VALUETOSTR
  1035
  1036 19AB A2 20			ldx #$20
  1037 19AD BD 00 08 9D 5E 3E + 	mva:rpl @buf,x adr.Result,x-
  1038
  1039 19B6 68 AA			pla:tax
  1040
  1041 19B8			@exit
  1042
  1043 				; ------------------------------------------------------------
  1044
  1045 				; Push WORD / SMALLINT / SHORTREAL / POINTER
  1046 				; as Pointer
  1047
  1048 19B8 E8				inx
  1049 19B9 AD C4 19 95 16		mva RESULT :STACKORIGIN,x
  1050 19BE AD C5 19 95 26		mva RESULT+1 :STACKORIGIN+STACKWIDTH,x
  1051
  1052 					.ifdef @new
  1053 					lda <@VarData
  1054 					sta :ztmp
  1055 					lda >@VarData
  1056 					ldy #@VarDataSize-1
  1057 					jmp @FreeMem
  1058 					eif
  1059
  1060 				; ------------------------------------------------------------
  1061
  1062 = 3E5A			A	= DATAORIGIN+$0079
  1063 = 3E5E			adr.RESULT	= [DATAORIGIN+$007D] .array [33]
  1064 19C3			.var RESULT	= adr.RESULT .word
  1065
  1066 = 3E5A			@VarData	= A
  1067 = 0025			@VarDataSize	= 37
  1068
  1069 19C3 60				rts						; ret
  1070 = 19C4 5E 3E		RESULT
  1070 				.endl
  1071 				.endl							; overload
  1072
  1073 19C6			.local	STRTOINT					; FUNCTION | ASSEMBLER | OVERLOAD
  1074 19C6			.local	@010286000
  1075 19C6 8D 7F 3E			sta S
  1076
  1077 				; -------------------  ASM Block 00000084  -------------------
  1078
  1079 19C9 AD 7F 3E 8D 01 08		mva s @buf+1
  1080 19CF A9 01 8D 00 08		mva #1 @buf
  1081
  1082 					@StrToInt #@buf
  1082 				 LDY> @BUF\ LDA< @BUF\ JSR @STRTOINT
  1082 19D4 A0 08		 LDY> @BUF
  1082 19D6 A9 00		 LDA< @BUF
  1082 19D8 20 68 13		 JSR @STRTOINT
  1083
  1084 19DB A5 0A 8D 80 3E		mva edx Result
  1085
  1086 19E0			@exit
  1087
  1088 				; ------------------------------------------------------------
  1089
  1090 = 3E7F			S	= DATAORIGIN+$009E
  1091 = 3E80			RESULT	= DATAORIGIN+$009F
  1092
  1093 = 3E7F			@VarData	= S
  1094 = 0001			@VarDataSize	= 1
  1095
  1096 19E0 60				rts						; ret
  1097 				.endl
  1098 				.endl							; overload
  1099
  1100 19E1			.local	INTTOHEX					; FUNCTION | ASSEMBLER | REGISTER
  1101
  1102 				; -------------------  ASM Block 00000088  -------------------
  1103
  1104 19E1 20 F7 12			jsr @hexStr
  1105
  1106 				;	@move #@buf Result #33
  1107 19E4 A0 DF			ldy #256-33
  1108 19E6 B9 21 07 99 A2 3D + 	mva:rne @buf+33-256,y adr.Result+33-256,y+
  1109
  1110 19EF			@exit
  1111
  1112 				; ------------------------------------------------------------
  1113
  1114 = 000A			VALUE	= :EDX
  1115 = 000E			DIGITS	= :ECX
  1116 = 3E81			adr.RESULT	= [DATAORIGIN+$00A0] .array [33]
  1117 19EF			.var RESULT	= adr.RESULT .word
  1118
  1119 = 19F0			@VarData	= RESULT
  1120 = 0021			@VarDataSize	= 33
  1121
  1122 19EF 60				rts						; ret
  1123 = 19F0 81 3E		RESULT
  1123 				.endl
  1124
  1125 				; ------------------------------------------------------------
  1126
  1127 = 0001			FAREADONLY	= $01
  1128 = 0002			FAHIDDEN	= $02
  1129 = 0004			FASYSFILE	= $04
  1130 = 0008			FAVOLUMEID	= $08
  1131 = 0010			FADIRECTORY	= $10
  1132 = 0020			FAARCHIVE	= $20
  1133 = 003F			FAANYFILE	= $3F
  1134
  1135 				.endl							; UNIT SYSUTILS
  1136
  1137 				; ------------------------------------------------------------
  1138
  1139 19F2			.local	C64						; UNIT
  1140
  1141 				; ------------------------------------------------------------
  1142
  1143 = D000			SPRITE0X	= $D000
  1144 = D001			SPRITE0Y	= $D001
  1145 = D002			SPRITE1X	= $D002
  1146 = D003			SPRITE1Y	= $D003
  1147 = D004			SPRITE2X	= $D004
  1148 = D005			SPRITE2Y	= $D005
  1149 = D006			SPRITE3X	= $D006
  1150 = D007			SPRITE3Y	= $D007
  1151 = D008			SPRITE4X	= $D008
  1152 = D009			SPRITE4Y	= $D009
  1153 = D00A			SPRITE5X	= $D00A
  1154 = D00B			SPRITE5Y	= $D00B
  1155 = D00C			SPRITE6X	= $D00C
  1156 = D00D			SPRITE6Y	= $D00D
  1157 = D00E			SPRITE7X	= $D00E
  1158 = D00F			SPRITE7Y	= $D00F
  1159 = D010			SPRITESXMSB	= $D010
  1160 = D011			CONTROLREGISTER1	= $D011
  1161 = D012			RASTERCOUNTER	= $D012
  1162 = D013			LIGHTPENX	= $D013
  1163 = D014			LIGHTPENY	= $D014
  1164 = D015			ENABLESPRITES	= $D015
  1165 = D016			CONTROLREGISTER2	= $D016
  1166 = D017			SPRITEYEXPANSION	= $D017
  1167 = D018			MEMORYPOINTERS	= $D018
  1168 = D019			INTERRUPTREGISTER	= $D019
  1169 = D01A			INTERRUPTENABLED	= $D01A
  1170 = D01B			SPRITEDATAPRIORITY	= $D01B
  1171 = D01C			SPRITEMULTICOLOR	= $D01C
  1172 = D01D			SPRITEXEXPANSION	= $D01D
  1173 = D01E			SPRITESPRITECOLLISION	= $D01E
  1174 = D01F			SPRITEDATACOLLISION	= $D01F
  1175 = D020			BORDERCOLOR	= $D020
  1176 = D021			BACKGROUNDCOLOR0	= $D021
  1177 = D022			BACKGROUNDCOLOR1	= $D022
  1178 = D023			BACKGROUNDCOLOR2	= $D023
  1179 = D024			BACKGROUNDCOLOR3	= $D024
  1180 = D025			SPRITEMULTICOLOR0	= $D025
  1181 = D026			SPRITEMULTICOLOR1	= $D026
  1182 = D027			SPRITE0COLOR	= $D027
  1183 = D028			SPRITE1COLOR	= $D028
  1184 = D029			SPRITE2COLOR	= $D029
  1185 = D02A			SPRITE3COLOR	= $D02A
  1186 = D02B			SPRITE4COLOR	= $D02B
  1187 = D02C			SPRITE5COLOR	= $D02C
  1188 = D02D			SPRITE6COLOR	= $D02D
  1189 = D02E			SPRITE7COLOR	= $D02E
  1190 = 0000			D6510	= $00
  1191 = 0001			R6510	= $01
  1192 = DD00			PRA2	= $DD00
  1193 = D000			SP0X	= $D000
  1194 = D001			SP0Y	= $D001
  1195 = D002			SP1X	= $D002
  1196 = D003			SP1Y	= $D003
  1197 = D004			SP2X	= $D004
  1198 = D005			SP2Y	= $D005
  1199 = D006			SP3X	= $D006
  1200 = D007			SP3Y	= $D007
  1201 = D008			SP4X	= $D008
  1202 = D009			SP4Y	= $D009
  1203 = D00A			SP5X	= $D00A
  1204 = D00B			SP5Y	= $D00B
  1205 = D00C			SP6X	= $D00C
  1206 = D00D			SP6Y	= $D00D
  1207 = D00E			SP7X	= $D00E
  1208 = D00F			SP7Y	= $D00F
  1209 = D010			MSIGX	= $D010
  1210 = D011			SCROLY	= $D011
  1211 = D011			VICCR1	= $D011
  1212 = D012			RASTER	= $D012
  1213 = D013			LPENX	= $D013
  1214 = D014			LPENY	= $D014
  1215 = D015			SPENA	= $D015
  1216 = D016			SCROLX	= $D016
  1217 = D016			VICCR2	= $D016
  1218 = D017			YXPAND	= $D017
  1219 = D018			VMCSB	= $D018
  1220 = D019			VICIRQ	= $D019
  1221 = D01A			IRQMASK	= $D01A
  1222 = D01B			SPBGPR	= $D01B
  1223 = D01C			SPMC	= $D01C
  1224 = D01D			XXPAND	= $D01D
  1225 = D01E			SPSPCL	= $D01E
  1226 = D01F			SPBGCL	= $D01F
  1227 = D020			EXTCOL	= $D020
  1228 = D021			BGCOL0	= $D021
  1229 = D022			BGCOL1	= $D022
  1230 = D023			BGCOL2	= $D023
  1231 = D024			BGCOL3	= $D024
  1232 = D025			SPMC0	= $D025
  1233 = D026			SPMC1	= $D026
  1234 = D027			SP0COL	= $D027
  1235 = D028			SP1COL	= $D028
  1236 = D029			SP2COL	= $D029
  1237 = D02A			SP3COL	= $D02A
  1238 = D02B			SP4COL	= $D02B
  1239 = D02C			SP5COL	= $D02C
  1240 = D02D			SP6COL	= $D02D
  1241 = D02E			SP7COL	= $D02E
  1242 = D400			FRELO1	= $D400
  1243 = D401			FREHI1	= $D401
  1244 = D402			PWLO1	= $D402
  1245 = D403			PWHI1	= $D403
  1246 = D404			VCREG1	= $D404
  1247 = D405			ATDCY1	= $D405
  1248 = D406			SUREL1	= $D406
  1249 = D407			FRELO2	= $D407
  1250 = D408			FREHI2	= $D408
  1251 = D409			PWLO2	= $D409
  1252 = D40A			PWHI2	= $D40A
  1253 = D40B			VCREG2	= $D40B
  1254 = D40C			ATDCY2	= $D40C
  1255 = D40D			SUREL2	= $D40D
  1256 = D40E			FRELO3	= $D40E
  1257 = D40F			FREHI3	= $D40F
  1258 = D410			PWLO3	= $D410
  1259 = D411			PWHI3	= $D411
  1260 = D412			VCREG3	= $D412
  1261 = D413			ATDCY3	= $D413
  1262 = D414			SUREL3	= $D414
  1263 = D415			CUTLO	= $D415
  1264 = D416			CUTHI	= $D416
  1265 = D417			RESON	= $D417
  1266 = D418			SIGVOL	= $D418
  1267 = D419			POTX	= $D419
  1268 = D41A			POTY	= $D41A
  1269 = D41B			RANDOM	= $D41B
  1270 = D41C			ENV3	= $D41C
  1271 = D800			COLORRAM	= $D800
  1272 = DC00			CIAPRA	= $DC00
  1273 = DC01			CIAPRB	= $DC01
  1274 = DC02			CIDDRA	= $DC02
  1275 = DC03			CIDDRB	= $DC03
  1276 = DC04			TIMALO	= $DC04
  1277 = DC05			TIMAHI	= $DC05
  1278 = DC06			TIMBLO	= $DC06
  1279 = DC07			TIMBHI	= $DC07
  1280 = DC08			TODTEN	= $DC08
  1281 = DC09			TODSEC	= $DC09
  1282 = DC0A			TODMIN	= $DC0A
  1283 = DC0B			TODHRS	= $DC0B
  1284 = DC0C			CIASDR	= $DC0C
  1285 = DC0D			CIAICR	= $DC0D
  1286 = DC0E			CIACRA	= $DC0E
  1287 = DC0F			CIACRB	= $DC0F
  1288 = DD00			CI2PRA	= $DD00
  1289 = DD01			CI2PRB	= $DD01
  1290 = DD02			C2DDRA	= $DD02
  1291 = DD03			C2DDRB	= $DD03
  1292 = DD04			TI2ALO	= $DD04
  1293 = DD05			TI2AHI	= $DD05
  1294 = DD06			TI2BLO	= $DD06
  1295 = DD07			TI2BHI	= $DD07
  1296 = DD08			TO2TEN	= $DD08
  1297 = DD09			TO2SEC	= $DD09
  1298 = DD0A			TO2MIN	= $DD0A
  1299 = DD0B			TO2HRS	= $DD0B
  1300 = DD0C			CI2SDR	= $DD0C
  1301 = DD0D			CI2ICR	= $DD0D
  1302 = DD0E			CI2CRA	= $DD0E
  1303 = DD0F			CI2CRB	= $DD0F
  1304 = FFFA			NMIADL	= $FFFA
  1305 = FFFB			NMIADH	= $FFFB
  1306 = FFFC			RSTADL	= $FFFC
  1307 = FFFD			RSTADH	= $FFFD
  1308 = FFFE			IRQADL	= $FFFE
  1309 = FFFF			IRQADH	= $FFFF
  1310
  1311 				.endl							; UNIT C64
  1312
  1313 				; ------------------------------------------------------------
  1314
  1315 19F2			.local	MATH						; UNIT
  1316
  1317 19F2			.local	MIN						; FUNCTION | OVERLOAD
  1318 19F2			.local	@0201840000184000
  1319
  1320 				; optimize OK (MATH), line = 352
  1321
  1322 19F2 AD A2 3E			lda X
  1323 19F5 CD A4 3E			cmp Y
  1324 19F8 AD A3 3E			lda X+1
  1325 19FB ED A5 3E			sbc Y+1
  1326 19FE 50 02			svc
  1327 1A00 49 80			eor #$80
  1328 1A02 10 0C			jpl l_03C8
  1329 1A04 AD A2 3E			lda X
  1330 1A07 8D A6 3E			sta RESULT
  1331 1A0A AD A3 3E			lda X+1
  1332 1A0D 4C 19 1A			jmp l_03D7
  1333 1A10			l_03C8
  1334 1A10 AD A4 3E			lda Y
  1335 1A13 8D A6 3E			sta RESULT
  1336 1A16 AD A5 3E			lda Y+1
  1337 1A19			l_03D7
  1338 1A19 8D A7 3E			sta RESULT+1
  1339 1A1C			@exit
  1340
  1341 				; ------------------------------------------------------------
  1342
  1343 = 3EA2			X	= DATAORIGIN+$00C1
  1344 = 3EA4			Y	= DATAORIGIN+$00C3
  1345 = 3EA6			RESULT	= DATAORIGIN+$00C5
  1346
  1347 = 3EA2			@VarData	= X
  1348 = 0004			@VarDataSize	= 4
  1349
  1350 1A1C 60				rts						; ret
  1351 				.endl
  1352 				.endl							; overload
  1353
  1354 1A1D			.local	MAX						; FUNCTION | OVERLOAD
  1355 1A1D			.local	@0201840000184000
  1356
  1357 				; optimize OK (MATH), line = 412
  1358
  1359 1A1D AD AA 3E			lda Y
  1360 1A20 CD A8 3E			cmp X
  1361 1A23 AD AB 3E			lda Y+1
  1362 1A26 ED A9 3E			sbc X+1
  1363 1A29 50 02			svc
  1364 1A2B 49 80			eor #$80
  1365 1A2D 10 0C			jpl l_03F7
  1366 1A2F AD A8 3E			lda X
  1367 1A32 8D AC 3E			sta RESULT
  1368 1A35 AD A9 3E			lda X+1
  1369 1A38 4C 44 1A			jmp l_0406
  1370 1A3B			l_03F7
  1371 1A3B AD AA 3E			lda Y
  1372 1A3E 8D AC 3E			sta RESULT
  1373 1A41 AD AB 3E			lda Y+1
  1374 1A44			l_0406
  1375 1A44 8D AD 3E			sta RESULT+1
  1376 1A47			@exit
  1377
  1378 				; ------------------------------------------------------------
  1379
  1380 = 3EA8			X	= DATAORIGIN+$00C7
  1381 = 3EAA			Y	= DATAORIGIN+$00C9
  1382 = 3EAC			RESULT	= DATAORIGIN+$00CB
  1383
  1384 = 3EA8			@VarData	= X
  1385 = 0004			@VarDataSize	= 4
  1386
  1387 1A47 60				rts						; ret
  1388 				.endl
  1389 				.endl							; overload
  1390
  1391 				; ------------------------------------------------------------
  1392
  1393 				.endl							; UNIT MATH
  1394
  1395 				; ------------------------------------------------------------
  1396
  1397 1A48			.local	STRINGUTILS					; UNIT
  1398
  1399 1A48			.local	STRCAT						; FUNCTION | OVERLOAD
  1400 1A48			.local	@020189860000010001898600000100
  1401 1A48 CA				dex
  1402 1A49 30 01			jmi @main
  1403 1A4B CA				dex
  1404 1A4C			@main
  1405
  1406 				; optimize OK (STRINGUTILS), line = 225
  1407
  1408 1A4C AD D7 1A			lda R
  1409 1A4F 85 0A			sta SYSTEM.SETLENGTH.S
  1410 1A51 AD D8 1A			lda R+1
  1411 1A54 85 0B			sta SYSTEM.SETLENGTH.S+1
  1412 1A56 A9 00			lda #$00
  1413 1A58 85 0E			sta SYSTEM.SETLENGTH.LEN
  1414 1A5A 20 5F 18			jsr SYSTEM.SETLENGTH
  1415
  1416 				; optimize OK (STRINGUTILS), line = 226
  1417
  1418 1A5D AD AE 3E			lda adr.S1
  1419 1A60 8D AE 41			sta L1
  1420
  1421 				; optimize OK (STRINGUTILS), line = 227
  1422
  1423 1A63 AD AE 3F			lda adr.S2
  1424 1A66 8D AF 41			sta L2
  1425
  1426 				; optimize OK (STRINGUTILS), line = 229
  1427
  1428 1A69 AD D1 1A			lda S1
  1429 1A6C 85 0A			sta @move.src
  1430 1A6E AD D2 1A			lda S1+1
  1431 1A71 85 0B			sta @move.src+1
  1432 					@moveSTRING R #255
  1432 				 MWA R @MOVE.DST\ MVA #255 @MOVESTRING.LEN\ JSR @MOVESTRING
  1432 1A73 AD D7 1A 85 0E AD +  MWA R @MOVE.DST
  1432 1A7D A9 FF 8D B1 0C	 MVA #255 @MOVESTRING.LEN
  1432 1A82 20 AA 0C		 JSR @MOVESTRING
  1433
  1434 				; optimize OK (STRINGUTILS), line = 230
  1435
  1436 1A85 A9 01			lda #$01
  1437 1A87 8D B0 41			sta I
  1438
  1439 1A8A			l_045F
  1440 				; --- ForToDoCondition
  1441 1A8A AD B0 41			lda I
  1442 1A8D CD AF 41			cmp L2
  1443 1A90 90 02			scc
  1444 1A92 D0 16			jne l_046D
  1445 1A94 18 6D AE 41			add L1
  1446 1A98 85 1F			sta :STACKORIGIN+9
  1447 1A9A AC B0 41			ldy I
  1448 1A9D B9 AE 3F			lda adr.S2,y
  1449 1AA0 A4 1F			ldy :STACKORIGIN+9
  1450 1AA2 99 B1 41			sta adr.R,y
  1451
  1452 				; --- ForToDoEpilog
  1453 1AA5 EE B0 41			inc I
  1454 1AA8 D0 E0			jne l_045F
  1455 1AAA			l_046D
  1456
  1457 				; optimize OK (STRINGUTILS), line = 231
  1458
  1459 1AAA AD AE 41			lda L1
  1460 1AAD 18 6D AF 41			add L2
  1461 1AB1 8D B1 41			sta adr.R
  1462
  1463 				; optimize OK (STRINGUTILS), line = 232
  1464
  1465 1AB4 AD D7 1A			lda R
  1466 1AB7 85 0A			sta @move.src
  1467 1AB9 AD D8 1A			lda R+1
  1468 1ABC 85 0B			sta @move.src+1
  1469 					@moveSTRING RESULT #255
  1469 				 MWA RESULT @MOVE.DST\ MVA #255 @MOVESTRING.LEN\ JSR @MOVESTRING
  1469 1ABE AD D5 1A 85 0E AD +  MWA RESULT @MOVE.DST
  1469 1AC8 A9 FF 8D B1 0C	 MVA #255 @MOVESTRING.LEN
  1469 1ACD 20 AA 0C		 JSR @MOVESTRING
  1470 1AD0			@exit
  1471
  1472 				; ------------------------------------------------------------
  1473
  1474 = 3EAE			adr.S1	= [DATAORIGIN+$00CD] .array [256]
  1475 1AD0			.var S1	= adr.S1 .word
  1476 = 3FAE			adr.S2	= [DATAORIGIN+$01CD] .array [256]
  1477 1AD0			.var S2	= adr.S2 .word
  1478 = 40AE			adr.RESULT	= [DATAORIGIN+$02CD] .array [256]
  1479 1AD0			.var RESULT	= adr.RESULT .word
  1480 = 41AE			L1	= DATAORIGIN+$03CD
  1481 = 41AF			L2	= DATAORIGIN+$03CE
  1482 = 41B0			I	= DATAORIGIN+$03CF
  1483 = 41B1			adr.R	= [DATAORIGIN+$03D0] .array [256]
  1484 1AD0			.var R	= adr.R .word
  1485
  1486 = 1AD1			@VarData	= S1
  1487 = 0403			@VarDataSize	= 1027
  1488
  1489 1AD0 60				rts						; ret
  1490 = 1AD1 AE 3E		S1
  1490 = 1AD3 AE 3F		S2
  1490 = 1AD5 AE 40		RESULT
  1490 = 1AD7 B1 41		R
  1490 				.endl
  1491 				.endl							; overload
  1492
  1493 				; ------------------------------------------------------------
  1494
  1495 				.endl							; UNIT STRINGUTILS
  1496
  1497 				; ------------------------------------------------------------
  1498
  1499 1AD9			.local	KERNAL						; UNIT
  1500
  1501 1AD9			.local	KERNALSETNAM					; FUNCTION | ASSEMBLER | OVERLOAD
  1502 1AD9			.local	@0101898600000011
  1503
  1504 				; ------------------------------------------------------------
  1505
  1506 				; Generate Assignment for WORD / SMALLINT / SHORTREAL / POINTER
  1507 				; as Pointer
  1508 1AD9 B5 16			lda :STACKORIGIN,x
  1509 1ADB 85 04			sta :bp2
  1510 1ADD B5 26			lda :STACKORIGIN+STACKWIDTH,x
  1511 1ADF 85 05			sta :bp2+1
  1512 1AE1 A0 10			ldy #$10
  1513 1AE3 B1 04 99 B2 42 88 + 	mva:rpl (:bp2),y adr.ARG,y-
  1514 1AEB CA				dex
  1515 1AEC			@main
  1516
  1517 				; -------------------  ASM Block 00000092  -------------------
  1518
  1519 1AEC 8A 48		        txa:pha
  1520 1AEE AD B2 42		        lda adr.arg         ; load filename length
  1521 1AF1 A2 B3		        ldx <adr.arg+1      ; load filename first byte address
  1522 1AF3 A0 42		        Ldy >adr.arg+1
  1523 1AF5 20 BD FF		        jsr KERNAL_SETNAM   ; call SETNAM
  1524 1AF8 B0 08		        bcs error           ; carry set? branch to error
  1525 1AFA A9 01		        lda #$01            ; otherwise return true
  1526 1AFC			    close:
  1527 1AFC 8D C3 42		        sta Result
  1528 1AFF 68 AA		        pla:tax
  1529 1B01 60			        rts       
  1530 1B02			    error:  
  1531 1B02 8D B1 42		        sta lastError       ; store accumulator in lastError
  1532 1B05 A9 00		        lda #$00            ; return false
  1533 1B07 4C FC 1A		        jmp close
  1534
  1535 1B0A			@exit
  1536
  1537 				; ------------------------------------------------------------
  1538
  1539 = 42B2			adr.ARG	= [DATAORIGIN+$04D1] .array [17]
  1540 1B0A			.var ARG	= adr.ARG .word
  1541 = 42C3			RESULT	= DATAORIGIN+$04E2
  1542
  1543 = 1B0B			@VarData	= ARG
  1544 = 0011			@VarDataSize	= 17
  1545
  1546 1B0A 60				rts						; ret
  1547 = 1B0B B2 42		ARG
  1547 				.endl
  1548 				.endl							; overload
  1549
  1550 1B0D			.local	KERNALSETLFS					; FUNCTION | ASSEMBLER
  1551
  1552 				; -------------------  ASM Block 00000094  -------------------
  1553
  1554 1B0D 8A 48		        txa:pha
  1555 1B0F AD C4 42		        lda fd            ; set parameters
  1556 1B12 AE C5 42		        ldx device            
  1557 1B15 AC C6 42		        ldy secondary
  1558 1B18 20 BA FF		        jsr KERNAL_SETLFS          ; call SETLFS
  1559 1B1B B0 08		        bcs error           ; carry set? branch to error
  1560 1B1D A9 01		        lda #$01            ; otherwise return true
  1561 1B1F			    close:
  1562 1B1F 8D C7 42		        sta Result
  1563 1B22 68 AA		        pla:tax
  1564 1B24 60			        rts       
  1565 1B25			    error:  
  1566 1B25 8D B1 42		        sta lastError       ; store accumulator in lastError
  1567 1B28 A9 00		        lda #$00            ; return false
  1568 1B2A 4C 1F 1B		        jmp close
  1569
  1570 1B2D			@exit
  1571
  1572 				; ------------------------------------------------------------
  1573
  1574 = 42C4			FD	= DATAORIGIN+$04E3
  1575 = 42C5			DEVICE	= DATAORIGIN+$04E4
  1576 = 42C6			SECONDARY	= DATAORIGIN+$04E5
  1577 = 42C7			RESULT	= DATAORIGIN+$04E6
  1578
  1579 = 42C4			@VarData	= FD
  1580 = 0003			@VarDataSize	= 3
  1581
  1582 1B2D 60				rts						; ret
  1583 				.endl
  1584
  1585 1B2E			.local	KERNALOPEN					; FUNCTION | ASSEMBLER
  1586
  1587 				; -------------------  ASM Block 00000095  -------------------
  1588
  1589 1B2E 8A 48		        txa:pha
  1590 1B30 20 C0 FF		        jsr KERNAL_OPEN     ; call OPEN
  1591 1B33 B0 08		        bcs error           ; carry set? branch to error
  1592 1B35 A9 01		        lda #$01            ; otherwise return true
  1593 1B37			    close:
  1594 1B37 8D C8 42		        sta Result
  1595 1B3A 68 AA		        pla:tax
  1596 1B3C 60			        rts       
  1597 1B3D			    error:  
  1598 1B3D 8D B1 42		        sta lastError       ; store accumulator in lastError
  1599 1B40 A9 00		        lda #$00            ; return false
  1600 1B42 4C 37 1B		        jmp close
  1601
  1602 1B45			@exit
  1603
  1604 				; ------------------------------------------------------------
  1605
  1606 = 42C8			RESULT	= DATAORIGIN+$04E7
  1607
  1608 1B45 60				rts						; ret
  1609 				.endl
  1610
  1611 1B46			.local	KERNALCHKIN					; PROCEDURE | ASSEMBLER
  1612 1B46 8D C9 42			sta FD
  1613
  1614 				; -------------------  ASM Block 00000096  -------------------
  1615
  1616 1B49 8A 48		        txa:pha
  1617 1B4B AE C9 42		        ldx fd
  1618 1B4E 20 C6 FF		        jsr KERNAL_CHKIN     ; call CHKIN
  1619 1B51 68 AA		        pla:tax
  1620
  1621 				; ------------------------------------------------------------
  1622
  1623 = 42C9			FD	= DATAORIGIN+$04E8
  1624
  1625 = 42C9			@VarData	= FD
  1626 = 0001			@VarDataSize	= 1
  1627
  1628 1B53			@exit
  1629 					.ifdef @new
  1630 					lda <@VarData
  1631 					sta :ztmp
  1632 					lda >@VarData
  1633 					ldy #@VarDataSize-1
  1634 					jmp @FreeMem
  1635 					els
  1636 1B53 60				rts						; ret
  1637 					eif
  1638 				.endl
  1639
  1640 1B54			.local	KERNALCHKOUT					; PROCEDURE | ASSEMBLER
  1641 1B54 8D CA 42			sta FD
  1642
  1643 				; -------------------  ASM Block 00000097  -------------------
  1644
  1645 1B57 8A 48		        txa:pha
  1646 1B59 AE CA 42		        ldx fd
  1647 1B5C 20 C9 FF		        jsr KERNAL_CHKOUT     ; call CHKOUT
  1648 1B5F 68 AA		        pla:tax
  1649
  1650 				; ------------------------------------------------------------
  1651
  1652 = 42CA			FD	= DATAORIGIN+$04E9
  1653
  1654 = 42CA			@VarData	= FD
  1655 = 0001			@VarDataSize	= 1
  1656
  1657 1B61			@exit
  1658 					.ifdef @new
  1659 					lda <@VarData
  1660 					sta :ztmp
  1661 					lda >@VarData
  1662 					ldy #@VarDataSize-1
  1663 					jmp @FreeMem
  1664 					els
  1665 1B61 60				rts						; ret
  1666 					eif
  1667 				.endl
  1668
  1669 1B62			.local	KERNALREADST					; FUNCTION | ASSEMBLER
  1670
  1671 				; -------------------  ASM Block 00000098  -------------------
  1672
  1673 1B62 8A 48		        txa:pha
  1674 1B64 20 B7 FF		        jsr KERNAL_READST     ; call READST
  1675 1B67 8D CB 42		        sta Result
  1676 1B6A 68 AA		        pla:tax
  1677
  1678 1B6C			@exit
  1679
  1680 				; ------------------------------------------------------------
  1681
  1682 = 42CB			RESULT	= DATAORIGIN+$04EA
  1683
  1684 1B6C 60				rts						; ret
  1685 				.endl
  1686
  1687 1B6D			.local	KERNALCHRIN					; FUNCTION | ASSEMBLER
  1688
  1689 				; -------------------  ASM Block 00000099  -------------------
  1690
  1691 1B6D 8A 48		        txa:pha
  1692 1B6F 20 CF FF		        jsr KERNAL_CHRIN     ; call CHRIN
  1693 1B72 8D CC 42		        sta Result
  1694 1B75 68 AA		        pla:tax
  1695
  1696 1B77			@exit
  1697
  1698 				; ------------------------------------------------------------
  1699
  1700 = 42CC			RESULT	= DATAORIGIN+$04EB
  1701
  1702 1B77 60				rts						; ret
  1703 				.endl
  1704
  1705 1B78			.local	KERNALCHROUT					; FUNCTION | ASSEMBLER
  1706 1B78 8D CD 42			sta C
  1707
  1708 				; -------------------  ASM Block 00000100  -------------------
  1709
  1710 1B7B 8A 48		        txa:pha
  1711 1B7D AD CD 42		        lda c
  1712 1B80 20 D2 FF		        jsr KERNAL_CHROUT     ; call CHROUT
  1713 1B83 68 AA		        pla:tax
  1714
  1715 1B85			@exit
  1716
  1717 				; ------------------------------------------------------------
  1718
  1719 = 42CD			C	= DATAORIGIN+$04EC
  1720 = 42CE			RESULT	= DATAORIGIN+$04ED
  1721
  1722 = 42CD			@VarData	= C
  1723 = 0001			@VarDataSize	= 1
  1724
  1725 1B85 60				rts						; ret
  1726 				.endl
  1727
  1728 1B86			.local	KERNALCLOSE					; FUNCTION | ASSEMBLER
  1729 1B86 8D CF 42			sta FD
  1730
  1731 				; -------------------  ASM Block 00000101  -------------------
  1732
  1733 1B89 8A 48		        txa:pha
  1734 1B8B AD CF 42		        lda fd
  1735 1B8E 20 C3 FF		        jsr KERNAL_CLOSE     ; call CLOSE
  1736 1B91 B0 08		        bcs error           ; carry set? branch to error
  1737 1B93 A9 01		        lda #$01            ; otherwise return true
  1738 1B95			    close:
  1739 1B95 8D D0 42		        sta Result
  1740 1B98 68 AA		        pla:tax
  1741 1B9A 60			        rts       
  1742 1B9B			    error:  
  1743 1B9B 8D B1 42		        sta lastError       ; store accumulator in lastError
  1744 1B9E A9 00		        lda #$00            ; return false
  1745 1BA0 4C 95 1B		        jmp close
  1746
  1747 1BA3			@exit
  1748
  1749 				; ------------------------------------------------------------
  1750
  1751 = 42CF			FD	= DATAORIGIN+$04EE
  1752 = 42D0			RESULT	= DATAORIGIN+$04EF
  1753
  1754 = 42CF			@VarData	= FD
  1755 = 0001			@VarDataSize	= 1
  1756
  1757 1BA3 60				rts						; ret
  1758 				.endl
  1759
  1760 1BA4			.local	KERNALCLRCHN					; PROCEDURE | ASSEMBLER
  1761
  1762 				; -------------------  ASM Block 00000102  -------------------
  1763
  1764 1BA4 8A 48		        txa:pha
  1765 1BA6 20 CC FF		        jsr KERNAL_CLRCHN     ; call CLRCHN
  1766 1BA9 68 AA		        pla:tax
  1767
  1768 1BAB			@exit
  1769 					.ifdef @new
  1770 					lda <@VarData
  1771 					sta :ztmp
  1772 					lda >@VarData
  1773 					ldy #@VarDataSize-1
  1774 					jmp @FreeMem
  1775 					els
  1776 1BAB 60				rts						; ret
  1777 					eif
  1778 				.endl
  1779
  1780 1BAC			.local	SAVEBYTES					; PROCEDURE
  1781 1BAC CA				dex
  1782 1BAD 30 20			jmi @main
  1783
  1784 				; ------------------------------------------------------------
  1785
  1786 				; Generate Assignment for BYTE / CHAR / SHORTINT / BOOLEAN
  1787 				; as Pointer
  1788 1BAF B5 16			lda :STACKORIGIN,x
  1789 1BB1 8D E2 42			sta DEVICE
  1790 1BB4 CA				dex
  1791 1BB5 30 18			jmi @main
  1792
  1793 				; ------------------------------------------------------------
  1794
  1795 				; Generate Assignment for WORD / SMALLINT / SHORTREAL / POINTER
  1796 				; as Pointer
  1797 1BB7 B5 16			lda :STACKORIGIN,x
  1798 1BB9 8D E3 42			sta SOURCE
  1799 1BBC B5 26			lda :STACKORIGIN+STACKWIDTH,x
  1800 1BBE 8D E4 42			sta SOURCE+1
  1801 1BC1 CA				dex
  1802 1BC2 30 0B			jmi @main
  1803
  1804 				; ------------------------------------------------------------
  1805
  1806 				; Generate Assignment for WORD / SMALLINT / SHORTREAL / POINTER
  1807 				; as Pointer
  1808 1BC4 B5 16			lda :STACKORIGIN,x
  1809 1BC6 8D E5 42			sta SIZE
  1810 1BC9 B5 26			lda :STACKORIGIN+STACKWIDTH,x
  1811 1BCB 8D E6 42			sta SIZE+1
  1812 1BCE CA				dex
  1813 1BCF			@main
  1814
  1815 				; optimize OK (KERNAL), line = 314
  1816
  1817 1BCF A9 00			lda #$00
  1818 1BD1 8D E7 42			sta I
  1819 1BD4 8D E8 42			sta I+1
  1820
  1821 				; optimize FAIL ('KERNALSETNAM.@0101898600000011', KERNAL), line = 315
  1822
  1823 1BD7 E8				inx
  1824 1BD8 AD 5F 1C 95 16		mva FILENAME :STACKORIGIN,x
  1825 1BDD AD 60 1C 95 26		mva FILENAME+1 :STACKORIGIN+STACKWIDTH,x
  1826 1BE2 20 D9 1A			jsr KERNALSETNAM.@0101898600000011
  1827
  1828 				; optimize OK (KERNAL), line = 316
  1829
  1830 1BE5 A9 01			lda #$01
  1831 1BE7 8D C4 42			sta KERNALSETLFS.FD
  1832 1BEA AD E2 42			lda DEVICE
  1833 1BED 8D C5 42			sta KERNALSETLFS.DEVICE
  1834 1BF0 A9 09			lda #$09
  1835 1BF2 8D C6 42			sta KERNALSETLFS.SECONDARY
  1836 1BF5 20 0D 1B			jsr KERNALSETLFS
  1837
  1838 				; optimize FAIL ('KERNALOPEN', KERNAL), line = 317
  1839
  1840 1BF8 20 2E 1B			jsr KERNALOPEN
  1841 1BFB AD C8 42			lda KERNALOPEN.RESULT
  1842 1BFE F0 56			jeq l_04EB
  1843
  1844 				; optimize OK (KERNAL), line = 319
  1845
  1846 1C00 A9 01			lda #$01
  1847 1C02 20 54 1B			jsr KERNALCHKOUT
  1848
  1849 				; optimize OK (KERNAL), line = 320
  1850
  1851 1C05 A9 00			lda #$00
  1852 1C07 8D E7 42			sta I
  1853 1C0A 8D E8 42			sta I+1
  1854 1C0D AD E5 42			lda SIZE
  1855 1C10 38 E9 01			sub #$01
  1856 1C13 8D 26 1C			sta @FORTMP_04F9_0
  1857 1C16 AD E6 42			lda SIZE+1
  1858 1C19 E9 00			sbc #$00
  1859 1C1B 8D 1F 1C			sta @FORTMP_04F9_1
  1860
  1861 1C1E			l_04FC
  1862 				; --- ForToDoCondition
  1863 1C1E A9 00			lda @FORTMP_04F9_1::#$00
  1864 1C20 CD E8 42			cmp I+1
  1865 1C23 D0 05			bne @+
  1866 1C25 A9 00			lda @FORTMP_04F9_0::#$00
  1867 1C27 CD E7 42			cmp I
  1868 				@
  1869 1C2A 90 2A			jcc l_0508
  1870
  1871 				; optimize FAIL ('KERNALREADST', KERNAL), line = 322
  1872
  1873 1C2C 20 62 1B			jsr KERNALREADST
  1874 1C2F AD CB 42			lda KERNALREADST.RESULT
  1875 1C32 F0 03			jeq l_0518
  1876 1C34 4C 56 1C			jmp b_04FC
  1877 1C37			l_0518
  1878
  1879 				; optimize OK (KERNAL), line = 325
  1880
  1881 1C37 AD E3 42			lda SOURCE
  1882 1C3A 18 6D E7 42			add I
  1883 1C3E A8				tay
  1884 1C3F AD E4 42			lda SOURCE+1
  1885 1C42 6D E8 42			adc I+1
  1886 1C45 85 03			sta :bp+1
  1887 1C47 B1 02			lda (:bp),y
  1888 1C49 20 78 1B			jsr KERNALCHROUT
  1889
  1890 				; --- ForToDoEpilog
  1891 1C4C EE E7 42			inc I
  1892 1C4F D0 CD			jne l_04FC
  1893 1C51 EE E8 42			inc I+1
  1894 1C54 D0 C8			jne l_04FC
  1895 1C56			l_0508
  1896 1C56			b_04FC
  1897 1C56			l_04EB
  1898
  1899 				; optimize OK (KERNAL), line = 329
  1900
  1901 1C56 A9 01			lda #$01
  1902 1C58 20 86 1B			jsr KERNALCLOSE
  1903
  1904 				; optimize FAIL ('KERNALCLRCHN', KERNAL), line = 330
  1905
  1906 1C5B 20 A4 1B			jsr KERNALCLRCHN
  1907
  1908 				; ------------------------------------------------------------
  1909
  1910 = 42D1			adr.FILENAME	= [DATAORIGIN+$04F0] .array [17]
  1911 1C5E			.var FILENAME	= adr.FILENAME .word
  1912 = 42E2			DEVICE	= DATAORIGIN+$0501
  1913 = 42E3			SOURCE	= DATAORIGIN+$0502
  1914 = 42E5			SIZE	= DATAORIGIN+$0504
  1915 = 42E7			I	= DATAORIGIN+$0506
  1916
  1917 = 1C5F			@VarData	= FILENAME
  1918 = 0018			@VarDataSize	= 24
  1919
  1920 1C5E			@exit
  1921 					.ifdef @new
  1922 					lda <@VarData
  1923 					sta :ztmp
  1924 					lda >@VarData
  1925 					ldy #@VarDataSize-1
  1926 					jmp @FreeMem
  1927 					els
  1928 1C5E 60				rts						; ret
  1929 					eif
  1930 = 1C5F D1 42		FILENAME
  1930 				.endl
  1931
  1932 1C61			.local	LOADBYTES					; PROCEDURE
  1933 1C61 CA				dex
  1934 1C62 30 13			jmi @main
  1935
  1936 				; ------------------------------------------------------------
  1937
  1938 				; Generate Assignment for BYTE / CHAR / SHORTINT / BOOLEAN
  1939 				; as Pointer
  1940 1C64 B5 16			lda :STACKORIGIN,x
  1941 1C66 8D FC 42			sta DEVICE
  1942 1C69 CA				dex
  1943 1C6A 30 0B			jmi @main
  1944
  1945 				; ------------------------------------------------------------
  1946
  1947 				; Generate Assignment for WORD / SMALLINT / SHORTREAL / POINTER
  1948 				; as Pointer
  1949 1C6C B5 16			lda :STACKORIGIN,x
  1950 1C6E 8D FD 42			sta DEST
  1951 1C71 B5 26			lda :STACKORIGIN+STACKWIDTH,x
  1952 1C73 8D FE 42			sta DEST+1
  1953 1C76 CA				dex
  1954 1C77			@main
  1955
  1956 				; optimize OK (KERNAL), line = 338
  1957
  1958 1C77 A9 00			lda #$00
  1959 1C79 8D FF 42			sta I
  1960 1C7C 8D 00 43			sta I+1
  1961
  1962 				; optimize FAIL ('KERNALSETNAM.@0101898600000011', KERNAL), line = 339
  1963
  1964 1C7F E8				inx
  1965 1C80 AD E7 1C 95 16		mva FILENAME :STACKORIGIN,x
  1966 1C85 AD E8 1C 95 26		mva FILENAME+1 :STACKORIGIN+STACKWIDTH,x
  1967 1C8A 20 D9 1A			jsr KERNALSETNAM.@0101898600000011
  1968
  1969 				; optimize OK (KERNAL), line = 340
  1970
  1971 1C8D A9 01			lda #$01
  1972 1C8F 8D C4 42			sta KERNALSETLFS.FD
  1973 1C92 AD FC 42			lda DEVICE
  1974 1C95 8D C5 42			sta KERNALSETLFS.DEVICE
  1975 1C98 A9 09			lda #$09
  1976 1C9A 8D C6 42			sta KERNALSETLFS.SECONDARY
  1977 1C9D 20 0D 1B			jsr KERNALSETLFS
  1978
  1979 				; optimize FAIL ('KERNALOPEN', KERNAL), line = 341
  1980
  1981 1CA0 20 2E 1B			jsr KERNALOPEN
  1982 1CA3 AD C8 42			lda KERNALOPEN.RESULT
  1983 1CA6 F0 36			jeq l_054E
  1984
  1985 				; optimize OK (KERNAL), line = 343
  1986
  1987 1CA8 A9 01			lda #$01
  1988 1CAA 20 46 1B			jsr KERNALCHKIN
  1989
  1990 				; --- WhileProlog
  1991 1CAD 4C D6 1C			jmp l_0553
  1992 1CB0			l_0554
  1993
  1994 				; optimize FAIL ('KERNALCHRIN', KERNAL), line = 346
  1995
  1996 1CB0 20 6D 1B			jsr KERNALCHRIN
  1997 1CB3 E8				inx
  1998 1CB4 AD CC 42 95 16		mva KERNALCHRIN.RESULT :STACKORIGIN,x
  1999 1CB9 E8				inx
  2000 1CBA AD FD 42			lda DEST
  2001 1CBD 18 6D FF 42			add I
  2002 1CC1 95 16			sta :STACKORIGIN,x
  2003 1CC3 AD FE 42			lda DEST+1
  2004 1CC6 6D 00 43			adc I+1
  2005 1CC9 95 26			sta :STACKORIGIN+STACKWIDTH,x
  2006 1CCB 20 2A 18			jsr SYSTEM.POKE
  2007
  2008 				; optimize FAIL (0, KERNAL), line = 347
  2009
  2010 1CCE EE FF 42			inc I
  2011 1CD1 D0 03			sne
  2012 1CD3 EE 00 43			inc I+1
  2013 1CD6			l_0553
  2014
  2015 				; optimize FAIL ('KERNALREADST', KERNAL), line = 344
  2016
  2017 1CD6 20 62 1B			jsr KERNALREADST
  2018 1CD9 AD CB 42			lda KERNALREADST.RESULT
  2019 1CDC F0 D2			jeq l_0554
  2020 1CDE			l_054E
  2021
  2022 				; optimize OK (KERNAL), line = 350
  2023
  2024 1CDE A9 01			lda #$01
  2025 1CE0 20 86 1B			jsr KERNALCLOSE
  2026
  2027 				; optimize FAIL ('KERNALCLRCHN', KERNAL), line = 351
  2028
  2029 1CE3 20 A4 1B			jsr KERNALCLRCHN
  2030
  2031 				; ------------------------------------------------------------
  2032
  2033 = 42EB			adr.FILENAME	= [DATAORIGIN+$050A] .array [17]
  2034 1CE6			.var FILENAME	= adr.FILENAME .word
  2035 = 42FC			DEVICE	= DATAORIGIN+$051B
  2036 = 42FD			DEST	= DATAORIGIN+$051C
  2037 = 42FF			I	= DATAORIGIN+$051E
  2038 = 4301			B	= DATAORIGIN+$0520
  2039
  2040 = 1CE7			@VarData	= FILENAME
  2041 = 0017			@VarDataSize	= 23
  2042
  2043 1CE6			@exit
  2044 					.ifdef @new
  2045 					lda <@VarData
  2046 					sta :ztmp
  2047 					lda >@VarData
  2048 					ldy #@VarDataSize-1
  2049 					jmp @FreeMem
  2050 					els
  2051 1CE6 60				rts						; ret
  2052 					eif
  2053 = 1CE7 EB 42		FILENAME
  2053 				.endl
  2054
  2055 				; ------------------------------------------------------------
  2056
  2057 = FFBD			KERNAL_SETNAM	= $FFBD
  2058 = FFBA			KERNAL_SETLFS	= $FFBA
  2059 = FFC0			KERNAL_OPEN	= $FFC0
  2060 = FFC3			KERNAL_CLOSE	= $FFC3
  2061 = FFCC			KERNAL_CLRCHN	= $FFCC
  2062 = FFD5			KERNAL_LOAD	= $FFD5
  2063 = FFB1			KERNAL_LISTEN	= $FFB1
  2064 = FF93			KERNAL_SECOND	= $FF93
  2065 = FFAE			KERNAL_UNLSN	= $FFAE
  2066 = FFB4			KERNAL_TALK	= $FFB4
  2067 = FF96			KERNAL_TKSA	= $FF96
  2068 = FFA5			KERNAL_ACPTR	= $FFA5
  2069 = FFD2			KERNAL_CHROUT	= $FFD2
  2070 = FFAB			KERNAL_UNTLK	= $FFAB
  2071 = FFC6			KERNAL_CHKIN	= $FFC6
  2072 = FFC9			KERNAL_CHKOUT	= $FFC9
  2073 = FFB7			KERNAL_READST	= $FFB7
  2074 = FFCF			KERNAL_CHRIN	= $FFCF
  2075 = FFD8			KERNAL_SAVE	= $FFD8
  2076 = FFD8			KERNAL_PLOT	= $FFD8
  2077 = 42B1			LASTERROR	= DATAORIGIN+$04D0
  2078
  2079 				.endl							; UNIT KERNAL
  2080
  2081 				; ------------------------------------------------------------
  2082
  2083 1CE9			.local	NEURALNET					; UNIT
  2084
  2085 1CE9			.local	SIGMOID						; FUNCTION
  2086
  2087 				; optimize FAIL (2, NEURALNET), line = 106
  2088
  2089 1CE9 E8				inx
  2090 1CEA A9 00 95 16			mva #$00 :STACKORIGIN,x
  2091 1CEE 95 26			sta :STACKORIGIN+STACKWIDTH,x
  2092 1CF0 A9 80 95 36			mva #$80 :STACKORIGIN+STACKWIDTH*2,x
  2093 1CF4 A9 3F 95 46			mva #$3F :STACKORIGIN+STACKWIDTH*3,x
  2094 1CF8 E8				inx
  2095 1CF9 A9 00 95 16			mva #$00 :STACKORIGIN,x
  2096 1CFD 95 26			sta :STACKORIGIN+STACKWIDTH,x
  2097 1CFF A9 80 95 36			mva #$80 :STACKORIGIN+STACKWIDTH*2,x
  2098 1D03 A9 3F 95 46			mva #$3F :STACKORIGIN+STACKWIDTH*3,x
  2099 1D07 AD 57 7E			lda ARG
  2100 1D0A 8D EC 3D			sta SYSTEM.EXP.@01018F000.X
  2101 1D0D AD 58 7E			lda ARG+1
  2102 1D10 8D ED 3D			sta SYSTEM.EXP.@01018F000.X+1
  2103 1D13 AD 59 7E			lda ARG+2
  2104 1D16 8D EE 3D			sta SYSTEM.EXP.@01018F000.X+2
  2105 1D19 AD 5A 7E			lda ARG+3
  2106 1D1C 49 80			eor #$80
  2107 1D1E 8D EF 3D			sta SYSTEM.EXP.@01018F000.X+3
  2108 1D21 20 4B 16			jsr SYSTEM.EXP.@01018F000
  2109 1D24 E8				inx
  2110 1D25 AD F0 3D			lda SYSTEM.EXP.@01018F000.RESULT
  2111 1D28 85 0A			sta :FP2MAN0
  2112 1D2A AD F1 3D			lda SYSTEM.EXP.@01018F000.RESULT+1
  2113 1D2D 85 0B			sta :FP2MAN1
  2114 1D2F AD F2 3D			lda SYSTEM.EXP.@01018F000.RESULT+2
  2115 1D32 85 0C			sta :FP2MAN2
  2116 1D34 AD F3 3D			lda SYSTEM.EXP.@01018F000.RESULT+3
  2117 1D37 85 0D			sta :FP2MAN3
  2118 1D39 B5 15			lda :STACKORIGIN-1,x
  2119 1D3B 85 06			sta :FP1MAN0
  2120 1D3D B5 25			lda :STACKORIGIN-1+STACKWIDTH,x
  2121 1D3F 85 07			sta :FP1MAN1
  2122 1D41 B5 35			lda :STACKORIGIN-1+STACKWIDTH*2,x
  2123 1D43 85 08			sta :FP1MAN2
  2124 1D45 B5 45			lda :STACKORIGIN-1+STACKWIDTH*3,x
  2125 1D47 85 09			sta :FP1MAN3
  2126 1D49 20 8C 0F			jsr @FADD
  2127 1D4C CA				dex
  2128 1D4D A5 0E			lda :FPMAN0
  2129 1D4F 85 0A			sta :FP2MAN0
  2130 1D51 A5 0F			lda :FPMAN1
  2131 1D53 85 0B			sta :FP2MAN1
  2132 1D55 A5 10			lda :FPMAN2
  2133 1D57 85 0C			sta :FP2MAN2
  2134 1D59 A5 11			lda :FPMAN3
  2135 1D5B 85 0D			sta :FP2MAN3
  2136 1D5D B5 15			lda :STACKORIGIN-1,x
  2137 1D5F 85 06			sta :FP1MAN0
  2138 1D61 B5 25			lda :STACKORIGIN-1+STACKWIDTH,x
  2139 1D63 85 07			sta :FP1MAN1
  2140 1D65 B5 35			lda :STACKORIGIN-1+STACKWIDTH*2,x
  2141 1D67 85 08			sta :FP1MAN2
  2142 1D69 B5 45			lda :STACKORIGIN-1+STACKWIDTH*3,x
  2143 1D6B 85 09			sta :FP1MAN3
  2144 1D6D 20 99 11			jsr @FDIV
  2145 1D70 CA				dex
  2146 1D71 A5 0E			lda :FPMAN0
  2147 1D73 8D 5B 7E			sta RESULT
  2148 1D76 A5 0F			lda :FPMAN1
  2149 1D78 8D 5C 7E			sta RESULT+1
  2150 1D7B A5 10			lda :FPMAN2
  2151 1D7D 8D 5D 7E			sta RESULT+2
  2152 1D80 A5 11			lda :FPMAN3
  2153 1D82 8D 5E 7E			sta RESULT+3
  2154 1D85 CA				dex
  2155 1D86			@exit
  2156
  2157 				; ------------------------------------------------------------
  2158
  2159 = 7E57			ARG	= DATAORIGIN+$4076
  2160 = 7E5B			RESULT	= DATAORIGIN+$407A
  2161
  2162 = 7E57			@VarData	= ARG
  2163 = 0004			@VarDataSize	= 4
  2164
  2165 1D86 60				rts						; ret
  2166 				.endl
  2167
  2168 1D87			.local	SIGMOIDPRIM					; FUNCTION
  2169
  2170 				; optimize OK (NEURALNET), line = 111
  2171
  2172 1D87 AD 5F 7E			lda ARG
  2173 1D8A 85 0A			sta :FP2MAN0
  2174 1D8C AD 60 7E			lda ARG+1
  2175 1D8F 85 0B			sta :FP2MAN1
  2176 1D91 AD 61 7E			lda ARG+2
  2177 1D94 85 0C			sta :FP2MAN2
  2178 1D96 AD 62 7E			lda ARG+3
  2179 1D99 85 0D			sta :FP2MAN3
  2180 1D9B A9 00			lda #$00
  2181 1D9D 85 06			sta :FP1MAN0
  2182 1D9F 85 07			sta :FP1MAN1
  2183 1DA1 A9 80			lda #$80
  2184 1DA3 85 08			sta :FP1MAN2
  2185 1DA5 A9 3F			lda #$3F
  2186 1DA7 85 09			sta :FP1MAN3
  2187 1DA9 20 91 0F			jsr @FSUB
  2188 1DAC A5 0E			lda :FPMAN0
  2189 1DAE 85 0A			sta :FP2MAN0
  2190 1DB0 A5 0F			lda :FPMAN1
  2191 1DB2 85 0B			sta :FP2MAN1
  2192 1DB4 A5 10			lda :FPMAN2
  2193 1DB6 85 0C			sta :FP2MAN2
  2194 1DB8 A5 11			lda :FPMAN3
  2195 1DBA 85 0D			sta :FP2MAN3
  2196 1DBC AD 5F 7E			lda ARG
  2197 1DBF 85 06			sta :FP1MAN0
  2198 1DC1 AD 60 7E			lda ARG+1
  2199 1DC4 85 07			sta :FP1MAN1
  2200 1DC6 AD 61 7E			lda ARG+2
  2201 1DC9 85 08			sta :FP1MAN2
  2202 1DCB AD 62 7E			lda ARG+3
  2203 1DCE 85 09			sta :FP1MAN3
  2204 1DD0 20 F8 10			jsr @FMUL
  2205 1DD3 A5 0E			lda :FPMAN0
  2206 1DD5 8D 63 7E			sta RESULT
  2207 1DD8 A5 0F			lda :FPMAN1
  2208 1DDA 8D 64 7E			sta RESULT+1
  2209 1DDD A5 10			lda :FPMAN2
  2210 1DDF 8D 65 7E			sta RESULT+2
  2211 1DE2 A5 11			lda :FPMAN3
  2212 1DE4 8D 66 7E			sta RESULT+3
  2213 1DE7			@exit
  2214
  2215 				; ------------------------------------------------------------
  2216
  2217 = 7E5F			ARG	= DATAORIGIN+$407E
  2218 = 7E63			RESULT	= DATAORIGIN+$4082
  2219
  2220 = 7E5F			@VarData	= ARG
  2221 = 0004			@VarDataSize	= 4
  2222
  2223 1DE7 60				rts						; ret
  2224 				.endl
  2225
  2226 1DE8			.local	INITNETWORK					; PROCEDURE
  2227
  2228 				; optimize OK (NEURALNET), line = 118
  2229
  2230 1DE8 A9 00			lda #$00
  2231 1DEA 8D 67 7E			sta I
  2232 1DED 8D 68 7E			sta I+1
  2233
  2234 1DF0			l_05A2
  2235 				; --- ForToDoCondition
  2236 1DF0 AD 68 7E			lda I+1
  2237 1DF3 C9 0D			cmp #$0D
  2238 1DF5 90 11			bcc @+
  2239 1DF7 F0 03 4C BF 1E		jne l_05AE
  2240 1DFC AD 67 7E			lda I
  2241 1DFF C9 FF			cmp #$FF
  2242 1E01 90 05			bcc @+
  2243 1E03 F0 03 4C BF 1E		jne l_05AE
  2244 				@
  2245
  2246 				; optimize FAIL (1, NEURALNET), line = 119
  2247
  2248 1E08 E8				inx
  2249 1E09 AD 67 7E 95 16		mva I :STACKORIGIN,x
  2250 1E0E AD 68 7E			lda I+1
  2251 1E11 16 16			asl :STACKORIGIN,x
  2252 1E13 2A				rol @
  2253 1E14 16 16			asl :STACKORIGIN,x
  2254 1E16 2A				rol @
  2255 1E17 95 26			sta :STACKORIGIN+STACKWIDTH,x
  2256 1E19 20 93 18			jsr SYSTEM.RANDOMF
  2257 1E1C E8				inx
  2258 1E1D E8				inx
  2259 1E1E A9 00			lda #$00
  2260 1E20 85 0A			sta :FP2MAN0
  2261 1E22 A9 00			lda #$00
  2262 1E24 85 0B			sta :FP2MAN1
  2263 1E26 A9 00			lda #$00
  2264 1E28 85 0C			sta :FP2MAN2
  2265 1E2A A9 40			lda #$40
  2266 1E2C 85 0D			sta :FP2MAN3
  2267 1E2E AD 2E 3E			lda SYSTEM.RANDOMF.RESULT
  2268 1E31 85 06			sta :FP1MAN0
  2269 1E33 AD 2F 3E			lda SYSTEM.RANDOMF.RESULT+1
  2270 1E36 85 07			sta :FP1MAN1
  2271 1E38 AD 30 3E			lda SYSTEM.RANDOMF.RESULT+2
  2272 1E3B 85 08			sta :FP1MAN2
  2273 1E3D AD 31 3E			lda SYSTEM.RANDOMF.RESULT+3
  2274 1E40 85 09			sta :FP1MAN3
  2275 1E42 20 F8 10			jsr @FMUL
  2276 1E45 A5 0E			lda :FPMAN0
  2277 1E47 95 15			sta :STACKORIGIN-1,x
  2278 1E49 A5 0F			lda :FPMAN1
  2279 1E4B 95 25			sta :STACKORIGIN-1+STACKWIDTH,x
  2280 1E4D A5 10			lda :FPMAN2
  2281 1E4F 95 35			sta :STACKORIGIN-1+STACKWIDTH*2,x
  2282 1E51 A5 11			lda :FPMAN3
  2283 1E53 95 45			sta :STACKORIGIN-1+STACKWIDTH*3,x
  2284 1E55 A9 00			lda #$00
  2285 1E57 85 0A			sta :FP2MAN0
  2286 1E59 A9 00			lda #$00
  2287 1E5B 85 0B			sta :FP2MAN1
  2288 1E5D A9 00			lda #$00
  2289 1E5F 85 0C			sta :FP2MAN2
  2290 1E61 A9 3F			lda #$3F
  2291 1E63 85 0D			sta :FP2MAN3
  2292 1E65 B5 15			lda :STACKORIGIN-1,x
  2293 1E67 85 06			sta :FP1MAN0
  2294 1E69 B5 25			lda :STACKORIGIN-1+STACKWIDTH,x
  2295 1E6B 85 07			sta :FP1MAN1
  2296 1E6D B5 35			lda :STACKORIGIN-1+STACKWIDTH*2,x
  2297 1E6F 85 08			sta :FP1MAN2
  2298 1E71 B5 45			lda :STACKORIGIN-1+STACKWIDTH*3,x
  2299 1E73 85 09			sta :FP1MAN3
  2300 1E75 20 91 0F			jsr @FSUB
  2301 1E78 A5 0E			lda :FPMAN0
  2302 1E7A 95 15			sta :STACKORIGIN-1,x
  2303 1E7C A5 0F			lda :FPMAN1
  2304 1E7E 95 25			sta :STACKORIGIN-1+STACKWIDTH,x
  2305 1E80 A5 10			lda :FPMAN2
  2306 1E82 95 35			sta :STACKORIGIN-1+STACKWIDTH*2,x
  2307 1E84 A5 11			lda :FPMAN3
  2308 1E86 95 45			sta :STACKORIGIN-1+STACKWIDTH*3,x
  2309 1E88 CA				dex
  2310 1E89 AD 78 29			lda WEIGHTSHIDDEN
  2311 1E8C 18 75 15			add :STACKORIGIN-1,x
  2312 1E8F 85 04			sta :bp2
  2313 1E91 AD 79 29			lda WEIGHTSHIDDEN+1
  2314 1E94 75 25			adc :STACKORIGIN-1+STACKWIDTH,x
  2315 1E96 85 05			sta :bp2+1
  2316 1E98 A0 00			ldy #$00
  2317 1E9A B5 16			lda :STACKORIGIN,x
  2318 1E9C 91 04			sta (:bp2),y
  2319 1E9E C8				iny
  2320 1E9F B5 26			lda :STACKORIGIN+STACKWIDTH,x
  2321 1EA1 91 04			sta (:bp2),y
  2322 1EA3 C8				iny
  2323 1EA4 B5 36			lda :STACKORIGIN+STACKWIDTH*2,x
  2324 1EA6 91 04			sta (:bp2),y
  2325 1EA8 C8				iny
  2326 1EA9 B5 46			lda :STACKORIGIN+STACKWIDTH*3,x
  2327 1EAB 91 04			sta (:bp2),y
  2328 1EAD CA				dex
  2329 1EAE CA				dex
  2330
  2331 				; --- ForToDoEpilog
  2332 1EAF EE 67 7E			inc I
  2333 1EB2 F0 03 4C F0 1D		jne l_05A2
  2334 1EB7 EE 68 7E			inc I+1
  2335 1EBA F0 03 4C F0 1D		jne l_05A2
  2336 1EBF			l_05AE
  2337
  2338 				; optimize OK (NEURALNET), line = 120
  2339
  2340 1EBF A9 00			lda #$00
  2341 1EC1 8D 67 7E			sta I
  2342 1EC4 8D 68 7E			sta I+1
  2343
  2344 1EC7			l_05CA
  2345 				; --- ForToDoCondition
  2346 1EC7 AD 67 7E			lda I
  2347 1ECA C9 0E			cmp #$0E
  2348 1ECC B0 16			jcs l_05D8
  2349
  2350 				; optimize OK (NEURALNET), line = 121
  2351
  2352 1ECE 0A				asl @
  2353 1ECF 0A				asl @
  2354 1ED0 A8				tay
  2355 1ED1 A9 00			lda #$00
  2356 1ED3 99 02 7B			sta adr.BIASESHIDDEN,y
  2357 1ED6 99 03 7B			sta adr.BIASESHIDDEN+1,y
  2358 1ED9 99 04 7B			sta adr.BIASESHIDDEN+2,y
  2359 1EDC 99 05 7B			sta adr.BIASESHIDDEN+3,y
  2360
  2361 				; --- ForToDoEpilog
  2362 1EDF EE 67 7E			inc I
  2363 1EE2 D0 E3			jne l_05CA
  2364 1EE4			l_05D8
  2365
  2366 				; optimize OK (NEURALNET), line = 122
  2367
  2368 1EE4 A9 00			lda #$00
  2369 1EE6 8D 67 7E			sta I
  2370 1EE9 8D 68 7E			sta I+1
  2371
  2372 1EEC			l_05EC
  2373 				; --- ForToDoCondition
  2374 1EEC AD 67 7E			lda I
  2375 1EEF C9 8C			cmp #$8C
  2376 1EF1 90 03 4C A5 1F		jcs l_05FA
  2377
  2378 				; optimize FAIL (1, NEURALNET), line = 123
  2379
  2380 1EF6 E8				inx
  2381 1EF7 AD 67 7E 95 16		mva I :STACKORIGIN,x
  2382 1EFC AD 68 7E			lda I+1
  2383 1EFF 16 16			asl :STACKORIGIN,x
  2384 1F01 2A				rol @
  2385 1F02 16 16			asl :STACKORIGIN,x
  2386 1F04 2A				rol @
  2387 1F05 95 26			sta :STACKORIGIN+STACKWIDTH,x
  2388 1F07 20 93 18			jsr SYSTEM.RANDOMF
  2389 1F0A E8				inx
  2390 1F0B E8				inx
  2391 1F0C A9 00			lda #$00
  2392 1F0E 85 0A			sta :FP2MAN0
  2393 1F10 A9 00			lda #$00
  2394 1F12 85 0B			sta :FP2MAN1
  2395 1F14 A9 00			lda #$00
  2396 1F16 85 0C			sta :FP2MAN2
  2397 1F18 A9 40			lda #$40
  2398 1F1A 85 0D			sta :FP2MAN3
  2399 1F1C AD 2E 3E			lda SYSTEM.RANDOMF.RESULT
  2400 1F1F 85 06			sta :FP1MAN0
  2401 1F21 AD 2F 3E			lda SYSTEM.RANDOMF.RESULT+1
  2402 1F24 85 07			sta :FP1MAN1
  2403 1F26 AD 30 3E			lda SYSTEM.RANDOMF.RESULT+2
  2404 1F29 85 08			sta :FP1MAN2
  2405 1F2B AD 31 3E			lda SYSTEM.RANDOMF.RESULT+3
  2406 1F2E 85 09			sta :FP1MAN3
  2407 1F30 20 F8 10			jsr @FMUL
  2408 1F33 A5 0E			lda :FPMAN0
  2409 1F35 95 15			sta :STACKORIGIN-1,x
  2410 1F37 A5 0F			lda :FPMAN1
  2411 1F39 95 25			sta :STACKORIGIN-1+STACKWIDTH,x
  2412 1F3B A5 10			lda :FPMAN2
  2413 1F3D 95 35			sta :STACKORIGIN-1+STACKWIDTH*2,x
  2414 1F3F A5 11			lda :FPMAN3
  2415 1F41 95 45			sta :STACKORIGIN-1+STACKWIDTH*3,x
  2416 1F43 A9 00			lda #$00
  2417 1F45 85 0A			sta :FP2MAN0
  2418 1F47 A9 00			lda #$00
  2419 1F49 85 0B			sta :FP2MAN1
  2420 1F4B A9 00			lda #$00
  2421 1F4D 85 0C			sta :FP2MAN2
  2422 1F4F A9 3F			lda #$3F
  2423 1F51 85 0D			sta :FP2MAN3
  2424 1F53 B5 15			lda :STACKORIGIN-1,x
  2425 1F55 85 06			sta :FP1MAN0
  2426 1F57 B5 25			lda :STACKORIGIN-1+STACKWIDTH,x
  2427 1F59 85 07			sta :FP1MAN1
  2428 1F5B B5 35			lda :STACKORIGIN-1+STACKWIDTH*2,x
  2429 1F5D 85 08			sta :FP1MAN2
  2430 1F5F B5 45			lda :STACKORIGIN-1+STACKWIDTH*3,x
  2431 1F61 85 09			sta :FP1MAN3
  2432 1F63 20 91 0F			jsr @FSUB
  2433 1F66 A5 0E			lda :FPMAN0
  2434 1F68 95 15			sta :STACKORIGIN-1,x
  2435 1F6A A5 0F			lda :FPMAN1
  2436 1F6C 95 25			sta :STACKORIGIN-1+STACKWIDTH,x
  2437 1F6E A5 10			lda :FPMAN2
  2438 1F70 95 35			sta :STACKORIGIN-1+STACKWIDTH*2,x
  2439 1F72 A5 11			lda :FPMAN3
  2440 1F74 95 45			sta :STACKORIGIN-1+STACKWIDTH*3,x
  2441 1F76 CA				dex
  2442 1F77 AD 7E 29			lda WEIGHTSOUTPUT
  2443 1F7A 18 75 15			add :STACKORIGIN-1,x
  2444 1F7D 85 04			sta :bp2
  2445 1F7F AD 7F 29			lda WEIGHTSOUTPUT+1
  2446 1F82 75 25			adc :STACKORIGIN-1+STACKWIDTH,x
  2447 1F84 85 05			sta :bp2+1
  2448 1F86 A0 00			ldy #$00
  2449 1F88 B5 16			lda :STACKORIGIN,x
  2450 1F8A 91 04			sta (:bp2),y
  2451 1F8C C8				iny
  2452 1F8D B5 26			lda :STACKORIGIN+STACKWIDTH,x
  2453 1F8F 91 04			sta (:bp2),y
  2454 1F91 C8				iny
  2455 1F92 B5 36			lda :STACKORIGIN+STACKWIDTH*2,x
  2456 1F94 91 04			sta (:bp2),y
  2457 1F96 C8				iny
  2458 1F97 B5 46			lda :STACKORIGIN+STACKWIDTH*3,x
  2459 1F99 91 04			sta (:bp2),y
  2460 1F9B CA				dex
  2461 1F9C CA				dex
  2462
  2463 				; --- ForToDoEpilog
  2464 1F9D EE 67 7E			inc I
  2465 1FA0 F0 03 4C EC 1E		jne l_05EC
  2466 1FA5			l_05FA
  2467
  2468 				; optimize OK (NEURALNET), line = 124
  2469
  2470 1FA5 A9 00			lda #$00
  2471 1FA7 8D 67 7E			sta I
  2472 1FAA 8D 68 7E			sta I+1
  2473
  2474 1FAD			l_0616
  2475 				; --- ForToDoCondition
  2476 1FAD AD 67 7E			lda I
  2477 1FB0 C9 0A			cmp #$0A
  2478 1FB2 B0 16			jcs l_0624
  2479
  2480 				; optimize OK (NEURALNET), line = 125
  2481
  2482 1FB4 0A				asl @
  2483 1FB5 0A				asl @
  2484 1FB6 A8				tay
  2485 1FB7 A9 00			lda #$00
  2486 1FB9 99 A2 7D			sta adr.BIASESOUTPUT,y
  2487 1FBC 99 A3 7D			sta adr.BIASESOUTPUT+1,y
  2488 1FBF 99 A4 7D			sta adr.BIASESOUTPUT+2,y
  2489 1FC2 99 A5 7D			sta adr.BIASESOUTPUT+3,y
  2490
  2491 				; --- ForToDoEpilog
  2492 1FC5 EE 67 7E			inc I
  2493 1FC8 D0 E3			jne l_0616
  2494 1FCA			l_0624
  2495
  2496 				; ------------------------------------------------------------
  2497
  2498 = 7E67			I	= DATAORIGIN+$4086
  2499
  2500 = 7E67			@VarData	= I
  2501 = 0002			@VarDataSize	= 2
  2502
  2503 1FCA			@exit
  2504 					.ifdef @new
  2505 					lda <@VarData
  2506 					sta :ztmp
  2507 					lda >@VarData
  2508 					ldy #@VarDataSize-1
  2509 					jmp @FreeMem
  2510 					els
  2511 1FCA 60				rts						; ret
  2512 					eif
  2513 				.endl
  2514
  2515 1FCB			.local	PREDICT						; FUNCTION
  2516
  2517 				; optimize OK (NEURALNET), line = 136
  2518
  2519 1FCB A9 00			lda #$00
  2520 1FCD 8D 6D 7E			sta H
  2521
  2522 1FD0			l_063C
  2523 				; --- ForToDoCondition
  2524 1FD0 AD 6D 7E			lda H
  2525 1FD3 C9 0E			cmp #$0E
  2526 1FD5 90 03 4C 1C 21		jcs l_064A
  2527
  2528 				; optimize OK (NEURALNET), line = 138
  2529
  2530 1FDA A9 00			lda #$00
  2531 1FDC 8D 6F 7E			sta SUMHIDDEN
  2532 1FDF 8D 70 7E			sta SUMHIDDEN+1
  2533 1FE2 8D 71 7E			sta SUMHIDDEN+2
  2534 1FE5 8D 72 7E			sta SUMHIDDEN+3
  2535
  2536 				; optimize OK (NEURALNET), line = 139
  2537
  2538 1FE8 8D 6C 7E			sta I
  2539
  2540 1FEB			l_0657
  2541 				; --- ForToDoCondition
  2542 1FEB AD 6C 7E			lda I
  2543 1FEE 4A				lsr @
  2544 1FEF 4A				lsr @
  2545 1FF0 4A				lsr @
  2546 1FF1 AC 69 7E 84 04 AC + 	mwy INPUT :bp2
  2547 1FFB A8				tay
  2548 1FFC B1 04			lda (:bp2),y
  2549 1FFE 85 1F			sta :STACKORIGIN+9
  2550 2000 AD 6C 7E			lda I
  2551 2003 29 07			and #$07
  2552 2005 85 22			sta :STACKORIGIN+12
  2553 2007 A9 07			lda #$07
  2554 2009 38 E5 22			sub :STACKORIGIN+12
  2555 200C 85 21			sta :STACKORIGIN+11
  2556 200E A9 00			lda #$00
  2557 2010 85 50			sta :STACKORIGIN+STACKWIDTH*3+10
  2558 2012 85 40			sta :STACKORIGIN+STACKWIDTH*2+10
  2559 2014 85 30			sta :STACKORIGIN+STACKWIDTH+10
  2560 2016 A9 01			lda #$01
  2561 2018 A4 21			ldy :STACKORIGIN+11
  2562 201A F0 0A			beq l_0000_e
  2563 201C			l_0000_b
  2564 201C 0A				asl @
  2565 201D 26 30			rol :STACKORIGIN+STACKWIDTH+10
  2566 201F 26 40			rol :STACKORIGIN+STACKWIDTH*2+10
  2567 2021 26 50			rol :STACKORIGIN+STACKWIDTH*3+10
  2568 2023 88				dey
  2569 2024 D0 F6			bne l_0000_b
  2570 2026			l_0000_e
  2571 2026 25 1F			and :STACKORIGIN+9
  2572 2028 F0 6F			jeq l_0690
  2573
  2574 				; optimize OK (NEURALNET), line = 141
  2575
  2576 202A AD 6C 7E			lda I
  2577 202D 85 0E			sta :ecx
  2578 202F A9 0E			lda #$0E
  2579 2031 85 06			sta :eax
  2580 					.ifdef fmulinit
  2581 					fmulu_8
  2582 					els
  2583 2033 20 E9 0C			imulCL
  2584 					eif
  2585 2036 A5 06			lda :eax
  2586 2038 18 6D 6D 7E			add H
  2587 203C 85 20			sta :STACKORIGIN+10
  2588 203E A5 07			lda :eax+1
  2589 2040 69 00			adc #$00
  2590 2042 06 20			asl :STACKORIGIN+10
  2591 2044 2A				rol @
  2592 2045 06 20			asl :STACKORIGIN+10
  2593 2047 2A				rol @
  2594 2048 85 30			sta :STACKORIGIN+STACKWIDTH+10
  2595 204A AD 78 29			lda WEIGHTSHIDDEN
  2596 204D 18 65 20			add :STACKORIGIN+10
  2597 2050 85 04			sta :bp2
  2598 2052 AD 79 29			lda WEIGHTSHIDDEN+1
  2599 2055 65 30			adc :STACKORIGIN+STACKWIDTH+10
  2600 2057 85 05			sta :bp2+1
  2601 2059 A0 00			ldy #$00
  2602 205B B1 04			lda (:bp2),y
  2603 205D 85 0A			sta :FP2MAN0
  2604 205F C8				iny
  2605 2060 B1 04			lda (:bp2),y
  2606 2062 85 0B			sta :FP2MAN1
  2607 2064 C8				iny
  2608 2065 B1 04			lda (:bp2),y
  2609 2067 85 0C			sta :FP2MAN2
  2610 2069 C8				iny
  2611 206A B1 04			lda (:bp2),y
  2612 206C 85 0D			sta :FP2MAN3
  2613 206E AD 6F 7E			lda SUMHIDDEN
  2614 2071 85 06			sta :FP1MAN0
  2615 2073 AD 70 7E			lda SUMHIDDEN+1
  2616 2076 85 07			sta :FP1MAN1
  2617 2078 AD 71 7E			lda SUMHIDDEN+2
  2618 207B 85 08			sta :FP1MAN2
  2619 207D AD 72 7E			lda SUMHIDDEN+3
  2620 2080 85 09			sta :FP1MAN3
  2621 2082 20 8C 0F			jsr @FADD
  2622 2085 A5 0E			lda :FPMAN0
  2623 2087 8D 6F 7E			sta SUMHIDDEN
  2624 208A A5 0F			lda :FPMAN1
  2625 208C 8D 70 7E			sta SUMHIDDEN+1
  2626 208F A5 10			lda :FPMAN2
  2627 2091 8D 71 7E			sta SUMHIDDEN+2
  2628 2094 A5 11			lda :FPMAN3
  2629 2096 8D 72 7E			sta SUMHIDDEN+3
  2630 2099			l_0690
  2631
  2632 				; --- ForToDoEpilog
  2633 2099 EE 6C 7E			inc I
  2634 209C F0 03 4C EB 1F		jne l_0657
  2635 20A1			l_0665
  2636
  2637 				; optimize FAIL (1, NEURALNET), line = 142
  2638
  2639 20A1 E8				inx
  2640 20A2 AD 6D 7E 95 16		mva H :STACKORIGIN,x
  2641 20A7 A9 00			lda #$00
  2642 20A9 16 16			asl :STACKORIGIN,x
  2643 20AB 2A				rol @
  2644 20AC 16 16			asl :STACKORIGIN,x
  2645 20AE 2A				rol @
  2646 20AF 95 26			sta :STACKORIGIN+STACKWIDTH,x
  2647 20B1 AD 6D 7E			lda H
  2648 20B4 0A				asl @
  2649 20B5 0A				asl @
  2650 20B6 A8				tay
  2651 20B7 B9 02 7B			lda adr.BIASESHIDDEN,y
  2652 20BA 85 0A			sta :FP2MAN0
  2653 20BC B9 03 7B			lda adr.BIASESHIDDEN+1,y
  2654 20BF 85 0B			sta :FP2MAN1
  2655 20C1 B9 04 7B			lda adr.BIASESHIDDEN+2,y
  2656 20C4 85 0C			sta :FP2MAN2
  2657 20C6 B9 05 7B			lda adr.BIASESHIDDEN+3,y
  2658 20C9 85 0D			sta :FP2MAN3
  2659 20CB AD 6F 7E			lda SUMHIDDEN
  2660 20CE 85 06			sta :FP1MAN0
  2661 20D0 AD 70 7E			lda SUMHIDDEN+1
  2662 20D3 85 07			sta :FP1MAN1
  2663 20D5 AD 71 7E			lda SUMHIDDEN+2
  2664 20D8 85 08			sta :FP1MAN2
  2665 20DA AD 72 7E			lda SUMHIDDEN+3
  2666 20DD 85 09			sta :FP1MAN3
  2667 20DF 20 8C 0F			jsr @FADD
  2668 20E2 A5 0E			lda :FPMAN0
  2669 20E4 8D 57 7E			sta SIGMOID.ARG
  2670 20E7 A5 0F			lda :FPMAN1
  2671 20E9 8D 58 7E			sta SIGMOID.ARG+1
  2672 20EC A5 10			lda :FPMAN2
  2673 20EE 8D 59 7E			sta SIGMOID.ARG+2
  2674 20F1 A5 11			lda :FPMAN3
  2675 20F3 8D 5A 7E			sta SIGMOID.ARG+3
  2676 20F6 20 E9 1C			jsr SIGMOID
  2677 20F9 B4 16			ldy :STACKORIGIN,x
  2678 20FB AD 5B 7E			lda SIGMOID.RESULT
  2679 20FE 99 3A 7B			sta adr.ACTIVATIONSHIDDEN,y
  2680 2101 AD 5C 7E			lda SIGMOID.RESULT+1
  2681 2104 99 3B 7B			sta adr.ACTIVATIONSHIDDEN+1,y
  2682 2107 AD 5D 7E			lda SIGMOID.RESULT+2
  2683 210A 99 3C 7B			sta adr.ACTIVATIONSHIDDEN+2,y
  2684 210D AD 5E 7E			lda SIGMOID.RESULT+3
  2685 2110 99 3D 7B			sta adr.ACTIVATIONSHIDDEN+3,y
  2686 2113 CA				dex
  2687
  2688 				; --- ForToDoEpilog
  2689 2114 EE 6D 7E			inc H
  2690 2117 F0 03 4C D0 1F		jne l_063C
  2691 211C			l_064A
  2692
  2693 				; optimize OK (NEURALNET), line = 145
  2694
  2695 211C A9 00			lda #$00
  2696 211E 8D 52 7E			sta MAXOUTPUT
  2697 2121 8D 53 7E			sta MAXOUTPUT+1
  2698 2124 A9 80			lda #$80
  2699 2126 8D 54 7E			sta MAXOUTPUT+2
  2700 2129 A9 BF			lda #$BF
  2701 212B 8D 55 7E			sta MAXOUTPUT+3
  2702
  2703 				; optimize OK (NEURALNET), line = 146
  2704
  2705 212E A9 00			lda #$00
  2706 2130 8D 6E 7E			sta O
  2707
  2708 2133			l_06CE
  2709 				; --- ForToDoCondition
  2710 2133 AD 6E 7E			lda O
  2711 2136 C9 0A			cmp #$0A
  2712 2138 90 03 4C DB 22		jcs l_06DC
  2713
  2714 				; optimize OK (NEURALNET), line = 148
  2715
  2716 213D A9 00			lda #$00
  2717 213F 8D 73 7E			sta SUMOUTPUT
  2718 2142 8D 74 7E			sta SUMOUTPUT+1
  2719 2145 8D 75 7E			sta SUMOUTPUT+2
  2720 2148 8D 76 7E			sta SUMOUTPUT+3
  2721
  2722 				; optimize OK (NEURALNET), line = 150
  2723
  2724 214B 8D 6D 7E			sta H
  2725
  2726 214E			l_06E9
  2727 				; --- ForToDoCondition
  2728 214E AD 6D 7E			lda H
  2729 2151 C9 0E			cmp #$0E
  2730 2153 90 03 4C 0A 22		jcs l_06F7
  2731
  2732 				; optimize OK (NEURALNET), line = 151
  2733
  2734 2158 0A				asl @
  2735 2159 0A				asl @
  2736 215A A8				tay
  2737 215B B9 3A 7B			lda adr.ACTIVATIONSHIDDEN,y
  2738 215E 85 06			sta :FP1MAN0
  2739 2160 B9 3B 7B			lda adr.ACTIVATIONSHIDDEN+1,y
  2740 2163 85 07			sta :FP1MAN1
  2741 2165 B9 3C 7B			lda adr.ACTIVATIONSHIDDEN+2,y
  2742 2168 85 08			sta :FP1MAN2
  2743 216A B9 3D 7B			lda adr.ACTIVATIONSHIDDEN+3,y
  2744 216D 85 09			sta :FP1MAN3
  2745 216F A9 00			lda #$00
  2746 2171 85 31			sta :STACKORIGIN+STACKWIDTH+11
  2747 2173 AD 6D 7E			lda H
  2748 2176 0A				asl @
  2749 2177 26 31			rol :STACKORIGIN+STACKWIDTH+11
  2750 2179 0A				asl @
  2751 217A 26 31			rol :STACKORIGIN+STACKWIDTH+11
  2752 217C 18 6D 6D 7E			add H
  2753 2180 85 21			sta :STACKORIGIN+11
  2754 2182 A5 31			lda :STACKORIGIN+STACKWIDTH+11
  2755 2184 69 00			adc #$00
  2756 2186 85 31			sta :STACKORIGIN+STACKWIDTH+11
  2757 2188 06 21			asl :STACKORIGIN+11
  2758 218A 26 31			rol :STACKORIGIN+STACKWIDTH+11
  2759 218C A5 21			lda :STACKORIGIN+11
  2760 218E 18 6D 6E 7E			add O
  2761 2192 85 21			sta :STACKORIGIN+11
  2762 2194 A5 31			lda :STACKORIGIN+STACKWIDTH+11
  2763 2196 69 00			adc #$00
  2764 2198 06 21			asl :STACKORIGIN+11
  2765 219A 2A				rol @
  2766 219B 06 21			asl :STACKORIGIN+11
  2767 219D 2A				rol @
  2768 219E 85 31			sta :STACKORIGIN+STACKWIDTH+11
  2769 21A0 AD 7E 29			lda WEIGHTSOUTPUT
  2770 21A3 18 65 21			add :STACKORIGIN+11
  2771 21A6 85 04			sta :bp2
  2772 21A8 AD 7F 29			lda WEIGHTSOUTPUT+1
  2773 21AB 65 31			adc :STACKORIGIN+STACKWIDTH+11
  2774 21AD 85 05			sta :bp2+1
  2775 21AF A0 00			ldy #$00
  2776 21B1 B1 04			lda (:bp2),y
  2777 21B3 85 0A			sta :FP2MAN0
  2778 21B5 C8				iny
  2779 21B6 B1 04			lda (:bp2),y
  2780 21B8 85 0B			sta :FP2MAN1
  2781 21BA C8				iny
  2782 21BB B1 04			lda (:bp2),y
  2783 21BD 85 0C			sta :FP2MAN2
  2784 21BF C8				iny
  2785 21C0 B1 04			lda (:bp2),y
  2786 21C2 85 0D			sta :FP2MAN3
  2787 21C4 20 F8 10			jsr @FMUL
  2788 21C7 A5 0E			lda :FPMAN0
  2789 21C9 85 0A			sta :FP2MAN0
  2790 21CB A5 0F			lda :FPMAN1
  2791 21CD 85 0B			sta :FP2MAN1
  2792 21CF A5 10			lda :FPMAN2
  2793 21D1 85 0C			sta :FP2MAN2
  2794 21D3 A5 11			lda :FPMAN3
  2795 21D5 85 0D			sta :FP2MAN3
  2796 21D7 AD 73 7E			lda SUMOUTPUT
  2797 21DA 85 06			sta :FP1MAN0
  2798 21DC AD 74 7E			lda SUMOUTPUT+1
  2799 21DF 85 07			sta :FP1MAN1
  2800 21E1 AD 75 7E			lda SUMOUTPUT+2
  2801 21E4 85 08			sta :FP1MAN2
  2802 21E6 AD 76 7E			lda SUMOUTPUT+3
  2803 21E9 85 09			sta :FP1MAN3
  2804 21EB 20 8C 0F			jsr @FADD
  2805 21EE A5 0E			lda :FPMAN0
  2806 21F0 8D 73 7E			sta SUMOUTPUT
  2807 21F3 A5 0F			lda :FPMAN1
  2808 21F5 8D 74 7E			sta SUMOUTPUT+1
  2809 21F8 A5 10			lda :FPMAN2
  2810 21FA 8D 75 7E			sta SUMOUTPUT+2
  2811 21FD A5 11			lda :FPMAN3
  2812 21FF 8D 76 7E			sta SUMOUTPUT+3
  2813
  2814 				; --- ForToDoEpilog
  2815 2202 EE 6D 7E			inc H
  2816 2205 F0 03 4C 4E 21		jne l_06E9
  2817 220A			l_06F7
  2818
  2819 				; optimize FAIL (1, NEURALNET), line = 153
  2820
  2821 220A E8				inx
  2822 220B AD 6E 7E 95 16		mva O :STACKORIGIN,x
  2823 2210 A9 00			lda #$00
  2824 2212 16 16			asl :STACKORIGIN,x
  2825 2214 2A				rol @
  2826 2215 16 16			asl :STACKORIGIN,x
  2827 2217 2A				rol @
  2828 2218 95 26			sta :STACKORIGIN+STACKWIDTH,x
  2829 221A AD 6E 7E			lda O
  2830 221D 0A				asl @
  2831 221E 0A				asl @
  2832 221F A8				tay
  2833 2220 B9 A2 7D			lda adr.BIASESOUTPUT,y
  2834 2223 85 0A			sta :FP2MAN0
  2835 2225 B9 A3 7D			lda adr.BIASESOUTPUT+1,y
  2836 2228 85 0B			sta :FP2MAN1
  2837 222A B9 A4 7D			lda adr.BIASESOUTPUT+2,y
  2838 222D 85 0C			sta :FP2MAN2
  2839 222F B9 A5 7D			lda adr.BIASESOUTPUT+3,y
  2840 2232 85 0D			sta :FP2MAN3
  2841 2234 AD 73 7E			lda SUMOUTPUT
  2842 2237 85 06			sta :FP1MAN0
  2843 2239 AD 74 7E			lda SUMOUTPUT+1
  2844 223C 85 07			sta :FP1MAN1
  2845 223E AD 75 7E			lda SUMOUTPUT+2
  2846 2241 85 08			sta :FP1MAN2
  2847 2243 AD 76 7E			lda SUMOUTPUT+3
  2848 2246 85 09			sta :FP1MAN3
  2849 2248 20 8C 0F			jsr @FADD
  2850 224B A5 0E			lda :FPMAN0
  2851 224D 8D 57 7E			sta SIGMOID.ARG
  2852 2250 A5 0F			lda :FPMAN1
  2853 2252 8D 58 7E			sta SIGMOID.ARG+1
  2854 2255 A5 10			lda :FPMAN2
  2855 2257 8D 59 7E			sta SIGMOID.ARG+2
  2856 225A A5 11			lda :FPMAN3
  2857 225C 8D 5A 7E			sta SIGMOID.ARG+3
  2858 225F 20 E9 1C			jsr SIGMOID
  2859 2262 B4 16			ldy :STACKORIGIN,x
  2860 2264 AD 5B 7E			lda SIGMOID.RESULT
  2861 2267 99 CA 7D			sta adr.ACTIVATIONSOUTPUT,y
  2862 226A AD 5C 7E			lda SIGMOID.RESULT+1
  2863 226D 99 CB 7D			sta adr.ACTIVATIONSOUTPUT+1,y
  2864 2270 AD 5D 7E			lda SIGMOID.RESULT+2
  2865 2273 99 CC 7D			sta adr.ACTIVATIONSOUTPUT+2,y
  2866 2276 AD 5E 7E			lda SIGMOID.RESULT+3
  2867 2279 99 CD 7D			sta adr.ACTIVATIONSOUTPUT+3,y
  2868 227C CA				dex
  2869
  2870 				; optimize OK (NEURALNET), line = 154
  2871
  2872 227D AD 6E 7E			lda O
  2873 2280 0A				asl @
  2874 2281 0A				asl @
  2875 2282 A8				tay
  2876 2283 B9 CA 7D			lda adr.ACTIVATIONSOUTPUT,y
  2877 2286 85 0E			sta @FCMPL.B
  2878 2288 B9 CB 7D			lda adr.ACTIVATIONSOUTPUT+1,y
  2879 228B 85 0F			sta @FCMPL.B+1
  2880 228D B9 CC 7D			lda adr.ACTIVATIONSOUTPUT+2,y
  2881 2290 85 10			sta @FCMPL.B+2
  2882 2292 B9 CD 7D			lda adr.ACTIVATIONSOUTPUT+3,y
  2883 2295 85 11			sta @FCMPL.B+3
  2884 2297 AD 52 7E			lda MAXOUTPUT
  2885 229A 85 06			sta @FCMPL.A
  2886 229C AD 53 7E			lda MAXOUTPUT+1
  2887 229F 85 07			sta @FCMPL.A+1
  2888 22A1 AD 54 7E			lda MAXOUTPUT+2
  2889 22A4 85 08			sta @FCMPL.A+2
  2890 22A6 AD 55 7E			lda MAXOUTPUT+3
  2891 22A9 85 09			sta @FCMPL.A+3
  2892 22AB 20 15 12			jsr @FCMPL
  2893 22AE 30 23			jmi l_073A
  2894 22B0 F0 21			jeq l_073A
  2895
  2896 				; optimize OK (NEURALNET), line = 156
  2897
  2898 22B2 AD 6E 7E			lda O
  2899 22B5 8D 6B 7E			sta RESULT
  2900
  2901 				; optimize OK (NEURALNET), line = 157
  2902
  2903 22B8 0A				asl @
  2904 22B9 0A				asl @
  2905 22BA A8				tay
  2906 22BB B9 CA 7D			lda adr.ACTIVATIONSOUTPUT,y
  2907 22BE 8D 52 7E			sta MAXOUTPUT
  2908 22C1 B9 CB 7D			lda adr.ACTIVATIONSOUTPUT+1,y
  2909 22C4 8D 53 7E			sta MAXOUTPUT+1
  2910 22C7 B9 CC 7D			lda adr.ACTIVATIONSOUTPUT+2,y
  2911 22CA 8D 54 7E			sta MAXOUTPUT+2
  2912 22CD B9 CD 7D			lda adr.ACTIVATIONSOUTPUT+3,y
  2913 22D0 8D 55 7E			sta MAXOUTPUT+3
  2914 22D3			l_073A
  2915
  2916 				; --- ForToDoEpilog
  2917 22D3 EE 6E 7E			inc O
  2918 22D6 F0 03 4C 33 21		jne l_06CE
  2919 22DB			l_06DC
  2920 22DB			@exit
  2921
  2922 				; ------------------------------------------------------------
  2923
  2924 = 7E69			INPUT	= DATAORIGIN+$4088
  2925 = 7E6B			RESULT	= DATAORIGIN+$408A
  2926 = 7E6C			I	= DATAORIGIN+$408B
  2927 = 7E6D			H	= DATAORIGIN+$408C
  2928 = 7E6E			O	= DATAORIGIN+$408D
  2929 = 7E6F			SUMHIDDEN	= DATAORIGIN+$408E
  2930 = 7E73			SUMOUTPUT	= DATAORIGIN+$4092
  2931
  2932 = 7E69			@VarData	= INPUT
  2933 = 000D			@VarDataSize	= 13
  2934
  2935 22DB 60				rts						; ret
  2936 				.endl
  2937
  2938 22DC			.local	TRAIN						; PROCEDURE
  2939
  2940 				; optimize OK (NEURALNET), line = 171
  2941
  2942 22DC AD 77 7E			lda INPUT
  2943 22DF 8D 69 7E			sta PREDICT.INPUT
  2944 22E2 AD 78 7E			lda INPUT+1
  2945 22E5 8D 6A 7E			sta PREDICT.INPUT+1
  2946 22E8 20 CB 1F			jsr PREDICT
  2947 22EB AD 6B 7E			lda PREDICT.RESULT
  2948 22EE 8D 89 7E			sta PREDICTED
  2949
  2950 				; optimize OK (NEURALNET), line = 172
  2951
  2952 22F1 A9 00			lda #$00
  2953 22F3 8D 7A 7E			sta O
  2954
  2955 22F6			l_0762
  2956 				; --- ForToDoCondition
  2957 22F6 AD 7A 7E			lda O
  2958 22F9 C9 0A			cmp #$0A
  2959 22FB 90 03 4C 03 24		jcs l_0770
  2960
  2961 				; optimize OK (NEURALNET), line = 174
  2962
  2963 2300 CD 79 7E			cmp OUTPUT
  2964 2303 D0 12			jne l_0784
  2965
  2966 				; optimize OK (NEURALNET), line = 175
  2967
  2968 2305 A9 00			lda #$00
  2969 2307 8D 7D 7E			sta OUTPUTBIT
  2970 230A 8D 7E 7E			sta OUTPUTBIT+1
  2971 230D A9 80			lda #$80
  2972 230F 8D 7F 7E			sta OUTPUTBIT+2
  2973 2312 A9 3F			lda #$3F
  2974 2314 4C 22 23			jmp l_0792
  2975 2317			l_0784
  2976
  2977 				; optimize OK (NEURALNET), line = 177
  2978
  2979 2317 A9 00			lda #$00
  2980 2319 8D 7D 7E			sta OUTPUTBIT
  2981 231C 8D 7E 7E			sta OUTPUTBIT+1
  2982 231F 8D 7F 7E			sta OUTPUTBIT+2
  2983 2322			l_0792
  2984 2322 8D 80 7E			sta OUTPUTBIT+3
  2985
  2986 				; optimize FAIL (2, NEURALNET), line = 178
  2987
  2988 2325 E8				inx
  2989 2326 AD 7A 7E 95 16		mva O :STACKORIGIN,x
  2990 232B A9 00			lda #$00
  2991 232D 16 16			asl :STACKORIGIN,x
  2992 232F 2A				rol @
  2993 2330 16 16			asl :STACKORIGIN,x
  2994 2332 2A				rol @
  2995 2333 95 26			sta :STACKORIGIN+STACKWIDTH,x
  2996 2335 E8				inx
  2997 2336 AD 7A 7E			lda O
  2998 2339 0A				asl @
  2999 233A 0A				asl @
  3000 233B A8				tay
  3001 233C B9 CA 7D			lda adr.ACTIVATIONSOUTPUT,y
  3002 233F 95 16			sta :STACKORIGIN,x
  3003 2341 B9 CB 7D			lda adr.ACTIVATIONSOUTPUT+1,y
  3004 2344 95 26			sta :STACKORIGIN+STACKWIDTH,x
  3005 2346 B9 CC 7D			lda adr.ACTIVATIONSOUTPUT+2,y
  3006 2349 95 36			sta :STACKORIGIN+STACKWIDTH*2,x
  3007 234B B9 CD 7D			lda adr.ACTIVATIONSOUTPUT+3,y
  3008 234E 95 46			sta :STACKORIGIN+STACKWIDTH*3,x
  3009 2350 E8				inx
  3010 2351 AD 7D 7E			lda OUTPUTBIT
  3011 2354 85 0A			sta :FP2MAN0
  3012 2356 AD 7E 7E			lda OUTPUTBIT+1
  3013 2359 85 0B			sta :FP2MAN1
  3014 235B AD 7F 7E			lda OUTPUTBIT+2
  3015 235E 85 0C			sta :FP2MAN2
  3016 2360 AD 80 7E			lda OUTPUTBIT+3
  3017 2363 85 0D			sta :FP2MAN3
  3018 2365 B5 15			lda :STACKORIGIN-1,x
  3019 2367 85 06			sta :FP1MAN0
  3020 2369 B5 25			lda :STACKORIGIN-1+STACKWIDTH,x
  3021 236B 85 07			sta :FP1MAN1
  3022 236D B5 35			lda :STACKORIGIN-1+STACKWIDTH*2,x
  3023 236F 85 08			sta :FP1MAN2
  3024 2371 B5 45			lda :STACKORIGIN-1+STACKWIDTH*3,x
  3025 2373 85 09			sta :FP1MAN3
  3026 2375 20 91 0F			jsr @FSUB
  3027 2378 A5 0E			lda :FPMAN0
  3028 237A 95 15			sta :STACKORIGIN-1,x
  3029 237C A5 0F			lda :FPMAN1
  3030 237E 95 25			sta :STACKORIGIN-1+STACKWIDTH,x
  3031 2380 A5 10			lda :FPMAN2
  3032 2382 95 35			sta :STACKORIGIN-1+STACKWIDTH*2,x
  3033 2384 A5 11			lda :FPMAN3
  3034 2386 95 45			sta :STACKORIGIN-1+STACKWIDTH*3,x
  3035 2388 CA				dex
  3036 2389 AD 7A 7E			lda O
  3037 238C 0A				asl @
  3038 238D 0A				asl @
  3039 238E A8				tay
  3040 238F B9 CA 7D			lda adr.ACTIVATIONSOUTPUT,y
  3041 2392 8D 5F 7E			sta SIGMOIDPRIM.ARG
  3042 2395 B9 CB 7D			lda adr.ACTIVATIONSOUTPUT+1,y
  3043 2398 8D 60 7E			sta SIGMOIDPRIM.ARG+1
  3044 239B B9 CC 7D			lda adr.ACTIVATIONSOUTPUT+2,y
  3045 239E 8D 61 7E			sta SIGMOIDPRIM.ARG+2
  3046 23A1 B9 CD 7D			lda adr.ACTIVATIONSOUTPUT+3,y
  3047 23A4 8D 62 7E			sta SIGMOIDPRIM.ARG+3
  3048 23A7 20 87 1D			jsr SIGMOIDPRIM
  3049 23AA E8				inx
  3050 23AB AD 63 7E			lda SIGMOIDPRIM.RESULT
  3051 23AE 85 0A			sta :FP2MAN0
  3052 23B0 AD 64 7E			lda SIGMOIDPRIM.RESULT+1
  3053 23B3 85 0B			sta :FP2MAN1
  3054 23B5 AD 65 7E			lda SIGMOIDPRIM.RESULT+2
  3055 23B8 85 0C			sta :FP2MAN2
  3056 23BA AD 66 7E			lda SIGMOIDPRIM.RESULT+3
  3057 23BD 85 0D			sta :FP2MAN3
  3058 23BF B5 15			lda :STACKORIGIN-1,x
  3059 23C1 85 06			sta :FP1MAN0
  3060 23C3 B5 25			lda :STACKORIGIN-1+STACKWIDTH,x
  3061 23C5 85 07			sta :FP1MAN1
  3062 23C7 B5 35			lda :STACKORIGIN-1+STACKWIDTH*2,x
  3063 23C9 85 08			sta :FP1MAN2
  3064 23CB B5 45			lda :STACKORIGIN-1+STACKWIDTH*3,x
  3065 23CD 85 09			sta :FP1MAN3
  3066 23CF 20 F8 10			jsr @FMUL
  3067 23D2 A5 0E			lda :FPMAN0
  3068 23D4 95 15			sta :STACKORIGIN-1,x
  3069 23D6 A5 0F			lda :FPMAN1
  3070 23D8 95 25			sta :STACKORIGIN-1+STACKWIDTH,x
  3071 23DA A5 10			lda :FPMAN2
  3072 23DC 95 35			sta :STACKORIGIN-1+STACKWIDTH*2,x
  3073 23DE A5 11			lda :FPMAN3
  3074 23E0 95 45			sta :STACKORIGIN-1+STACKWIDTH*3,x
  3075 23E2 CA				dex
  3076 23E3 B4 15			ldy :STACKORIGIN-1,x
  3077 23E5 B5 16			lda :STACKORIGIN,x
  3078 23E7 99 2A 7E			sta adr.GRADIENTSOUTPUT,y
  3079 23EA B5 26			lda :STACKORIGIN+STACKWIDTH,x
  3080 23EC 99 2B 7E			sta adr.GRADIENTSOUTPUT+1,y
  3081 23EF B5 36			lda :STACKORIGIN+STACKWIDTH*2,x
  3082 23F1 99 2C 7E			sta adr.GRADIENTSOUTPUT+2,y
  3083 23F4 B5 46			lda :STACKORIGIN+STACKWIDTH*3,x
  3084 23F6 99 2D 7E			sta adr.GRADIENTSOUTPUT+3,y
  3085 23F9 CA				dex
  3086 23FA CA				dex
  3087
  3088 				; --- ForToDoEpilog
  3089 23FB EE 7A 7E			inc O
  3090 23FE F0 03 4C F6 22		jne l_0762
  3091 2403			l_0770
  3092
  3093 				; optimize OK (NEURALNET), line = 181
  3094
  3095 2403 A9 00			lda #$00
  3096 2405 8D 7B 7E			sta H
  3097
  3098 2408			l_07BA
  3099 				; --- ForToDoCondition
  3100 2408 AD 7B 7E			lda H
  3101 240B C9 0E			cmp #$0E
  3102 240D 90 03 4C 7E 25		jcs l_07C8
  3103
  3104 				; optimize OK (NEURALNET), line = 183
  3105
  3106 2412 A9 00			lda #$00
  3107 2414 8D 85 7E			sta GRADIENTHIDDENSUM
  3108 2417 8D 86 7E			sta GRADIENTHIDDENSUM+1
  3109 241A 8D 87 7E			sta GRADIENTHIDDENSUM+2
  3110 241D 8D 88 7E			sta GRADIENTHIDDENSUM+3
  3111
  3112 				; optimize OK (NEURALNET), line = 184
  3113
  3114 2420 8D 7A 7E			sta O
  3115
  3116 2423			l_07D5
  3117 				; --- ForToDoCondition
  3118 2423 AD 7A 7E			lda O
  3119 2426 C9 0A			cmp #$0A
  3120 2428 90 03 4C DF 24		jcs l_07E3
  3121
  3122 				; optimize OK (NEURALNET), line = 185
  3123
  3124 242D 0A				asl @
  3125 242E 0A				asl @
  3126 242F A8				tay
  3127 2430 B9 2A 7E			lda adr.GRADIENTSOUTPUT,y
  3128 2433 85 06			sta :FP1MAN0
  3129 2435 B9 2B 7E			lda adr.GRADIENTSOUTPUT+1,y
  3130 2438 85 07			sta :FP1MAN1
  3131 243A B9 2C 7E			lda adr.GRADIENTSOUTPUT+2,y
  3132 243D 85 08			sta :FP1MAN2
  3133 243F B9 2D 7E			lda adr.GRADIENTSOUTPUT+3,y
  3134 2442 85 09			sta :FP1MAN3
  3135 2444 A9 00			lda #$00
  3136 2446 85 31			sta :STACKORIGIN+STACKWIDTH+11
  3137 2448 AD 7B 7E			lda H
  3138 244B 0A				asl @
  3139 244C 26 31			rol :STACKORIGIN+STACKWIDTH+11
  3140 244E 0A				asl @
  3141 244F 26 31			rol :STACKORIGIN+STACKWIDTH+11
  3142 2451 18 6D 7B 7E			add H
  3143 2455 85 21			sta :STACKORIGIN+11
  3144 2457 A5 31			lda :STACKORIGIN+STACKWIDTH+11
  3145 2459 69 00			adc #$00
  3146 245B 85 31			sta :STACKORIGIN+STACKWIDTH+11
  3147 245D 06 21			asl :STACKORIGIN+11
  3148 245F 26 31			rol :STACKORIGIN+STACKWIDTH+11
  3149 2461 A5 21			lda :STACKORIGIN+11
  3150 2463 18 6D 7A 7E			add O
  3151 2467 85 21			sta :STACKORIGIN+11
  3152 2469 A5 31			lda :STACKORIGIN+STACKWIDTH+11
  3153 246B 69 00			adc #$00
  3154 246D 06 21			asl :STACKORIGIN+11
  3155 246F 2A				rol @
  3156 2470 06 21			asl :STACKORIGIN+11
  3157 2472 2A				rol @
  3158 2473 85 31			sta :STACKORIGIN+STACKWIDTH+11
  3159 2475 AD 7E 29			lda WEIGHTSOUTPUT
  3160 2478 18 65 21			add :STACKORIGIN+11
  3161 247B 85 04			sta :bp2
  3162 247D AD 7F 29			lda WEIGHTSOUTPUT+1
  3163 2480 65 31			adc :STACKORIGIN+STACKWIDTH+11
  3164 2482 85 05			sta :bp2+1
  3165 2484 A0 00			ldy #$00
  3166 2486 B1 04			lda (:bp2),y
  3167 2488 85 0A			sta :FP2MAN0
  3168 248A C8				iny
  3169 248B B1 04			lda (:bp2),y
  3170 248D 85 0B			sta :FP2MAN1
  3171 248F C8				iny
  3172 2490 B1 04			lda (:bp2),y
  3173 2492 85 0C			sta :FP2MAN2
  3174 2494 C8				iny
  3175 2495 B1 04			lda (:bp2),y
  3176 2497 85 0D			sta :FP2MAN3
  3177 2499 20 F8 10			jsr @FMUL
  3178 249C A5 0E			lda :FPMAN0
  3179 249E 85 0A			sta :FP2MAN0
  3180 24A0 A5 0F			lda :FPMAN1
  3181 24A2 85 0B			sta :FP2MAN1
  3182 24A4 A5 10			lda :FPMAN2
  3183 24A6 85 0C			sta :FP2MAN2
  3184 24A8 A5 11			lda :FPMAN3
  3185 24AA 85 0D			sta :FP2MAN3
  3186 24AC AD 85 7E			lda GRADIENTHIDDENSUM
  3187 24AF 85 06			sta :FP1MAN0
  3188 24B1 AD 86 7E			lda GRADIENTHIDDENSUM+1
  3189 24B4 85 07			sta :FP1MAN1
  3190 24B6 AD 87 7E			lda GRADIENTHIDDENSUM+2
  3191 24B9 85 08			sta :FP1MAN2
  3192 24BB AD 88 7E			lda GRADIENTHIDDENSUM+3
  3193 24BE 85 09			sta :FP1MAN3
  3194 24C0 20 8C 0F			jsr @FADD
  3195 24C3 A5 0E			lda :FPMAN0
  3196 24C5 8D 85 7E			sta GRADIENTHIDDENSUM
  3197 24C8 A5 0F			lda :FPMAN1
  3198 24CA 8D 86 7E			sta GRADIENTHIDDENSUM+1
  3199 24CD A5 10			lda :FPMAN2
  3200 24CF 8D 87 7E			sta GRADIENTHIDDENSUM+2
  3201 24D2 A5 11			lda :FPMAN3
  3202 24D4 8D 88 7E			sta GRADIENTHIDDENSUM+3
  3203
  3204 				; --- ForToDoEpilog
  3205 24D7 EE 7A 7E			inc O
  3206 24DA F0 03 4C 23 24		jne l_07D5
  3207 24DF			l_07E3
  3208
  3209 				; optimize FAIL (2, NEURALNET), line = 186
  3210
  3211 24DF E8				inx
  3212 24E0 AD 7B 7E 95 16		mva H :STACKORIGIN,x
  3213 24E5 A9 00			lda #$00
  3214 24E7 16 16			asl :STACKORIGIN,x
  3215 24E9 2A				rol @
  3216 24EA 16 16			asl :STACKORIGIN,x
  3217 24EC 2A				rol @
  3218 24ED 95 26			sta :STACKORIGIN+STACKWIDTH,x
  3219 24EF E8				inx
  3220 24F0 AD 85 7E 95 16		mva GRADIENTHIDDENSUM :STACKORIGIN,x
  3221 24F5 AD 86 7E 95 26		mva GRADIENTHIDDENSUM+1 :STACKORIGIN+STACKWIDTH,x
  3222 24FA AD 87 7E 95 36		mva GRADIENTHIDDENSUM+2 :STACKORIGIN+STACKWIDTH*2,x
  3223 24FF AD 88 7E 95 46		mva GRADIENTHIDDENSUM+3 :STACKORIGIN+STACKWIDTH*3,x
  3224 2504 AD 7B 7E			lda H
  3225 2507 0A				asl @
  3226 2508 0A				asl @
  3227 2509 A8				tay
  3228 250A B9 3A 7B			lda adr.ACTIVATIONSHIDDEN,y
  3229 250D 8D 5F 7E			sta SIGMOIDPRIM.ARG
  3230 2510 B9 3B 7B			lda adr.ACTIVATIONSHIDDEN+1,y
  3231 2513 8D 60 7E			sta SIGMOIDPRIM.ARG+1
  3232 2516 B9 3C 7B			lda adr.ACTIVATIONSHIDDEN+2,y
  3233 2519 8D 61 7E			sta SIGMOIDPRIM.ARG+2
  3234 251C B9 3D 7B			lda adr.ACTIVATIONSHIDDEN+3,y
  3235 251F 8D 62 7E			sta SIGMOIDPRIM.ARG+3
  3236 2522 20 87 1D			jsr SIGMOIDPRIM
  3237 2525 E8				inx
  3238 2526 AD 63 7E			lda SIGMOIDPRIM.RESULT
  3239 2529 85 0A			sta :FP2MAN0
  3240 252B AD 64 7E			lda SIGMOIDPRIM.RESULT+1
  3241 252E 85 0B			sta :FP2MAN1
  3242 2530 AD 65 7E			lda SIGMOIDPRIM.RESULT+2
  3243 2533 85 0C			sta :FP2MAN2
  3244 2535 AD 66 7E			lda SIGMOIDPRIM.RESULT+3
  3245 2538 85 0D			sta :FP2MAN3
  3246 253A B5 15			lda :STACKORIGIN-1,x
  3247 253C 85 06			sta :FP1MAN0
  3248 253E B5 25			lda :STACKORIGIN-1+STACKWIDTH,x
  3249 2540 85 07			sta :FP1MAN1
  3250 2542 B5 35			lda :STACKORIGIN-1+STACKWIDTH*2,x
  3251 2544 85 08			sta :FP1MAN2
  3252 2546 B5 45			lda :STACKORIGIN-1+STACKWIDTH*3,x
  3253 2548 85 09			sta :FP1MAN3
  3254 254A 20 F8 10			jsr @FMUL
  3255 254D A5 0E			lda :FPMAN0
  3256 254F 95 15			sta :STACKORIGIN-1,x
  3257 2551 A5 0F			lda :FPMAN1
  3258 2553 95 25			sta :STACKORIGIN-1+STACKWIDTH,x
  3259 2555 A5 10			lda :FPMAN2
  3260 2557 95 35			sta :STACKORIGIN-1+STACKWIDTH*2,x
  3261 2559 A5 11			lda :FPMAN3
  3262 255B 95 45			sta :STACKORIGIN-1+STACKWIDTH*3,x
  3263 255D CA				dex
  3264 255E B4 15			ldy :STACKORIGIN-1,x
  3265 2560 B5 16			lda :STACKORIGIN,x
  3266 2562 99 F2 7D			sta adr.GRADIENTSHIDDEN,y
  3267 2565 B5 26			lda :STACKORIGIN+STACKWIDTH,x
  3268 2567 99 F3 7D			sta adr.GRADIENTSHIDDEN+1,y
  3269 256A B5 36			lda :STACKORIGIN+STACKWIDTH*2,x
  3270 256C 99 F4 7D			sta adr.GRADIENTSHIDDEN+2,y
  3271 256F B5 46			lda :STACKORIGIN+STACKWIDTH*3,x
  3272 2571 99 F5 7D			sta adr.GRADIENTSHIDDEN+3,y
  3273 2574 CA				dex
  3274 2575 CA				dex
  3275
  3276 				; --- ForToDoEpilog
  3277 2576 EE 7B 7E			inc H
  3278 2579 F0 03 4C 08 24		jne l_07BA
  3279 257E			l_07C8
  3280
  3281 				; optimize OK (NEURALNET), line = 189
  3282
  3283 257E A9 00			lda #$00
  3284 2580 8D 7B 7E			sta H
  3285
  3286 2583			l_0821
  3287 				; --- ForToDoCondition
  3288 2583 AD 7B 7E			lda H
  3289 2586 C9 0E			cmp #$0E
  3290 2588 90 03 4C CF 26		jcs l_082F
  3291
  3292 				; optimize OK (NEURALNET), line = 190
  3293
  3294 258D A9 00			lda #$00
  3295 258F 8D 7A 7E			sta O
  3296
  3297 2592			l_0838
  3298 				; --- ForToDoCondition
  3299 2592 AD 7A 7E			lda O
  3300 2595 C9 0A			cmp #$0A
  3301 2597 90 03 4C C7 26		jcs l_0846
  3302
  3303 				; optimize OK (NEURALNET), line = 191
  3304
  3305 259C A9 00			lda #$00
  3306 259E 85 2F			sta :STACKORIGIN+STACKWIDTH+9
  3307 25A0 AD 7B 7E			lda H
  3308 25A3 0A				asl @
  3309 25A4 26 2F			rol :STACKORIGIN+STACKWIDTH+9
  3310 25A6 0A				asl @
  3311 25A7 26 2F			rol :STACKORIGIN+STACKWIDTH+9
  3312 25A9 18 6D 7B 7E			add H
  3313 25AD 85 1F			sta :STACKORIGIN+9
  3314 25AF A5 2F			lda :STACKORIGIN+STACKWIDTH+9
  3315 25B1 69 00			adc #$00
  3316 25B3 85 2F			sta :STACKORIGIN+STACKWIDTH+9
  3317 25B5 06 1F			asl :STACKORIGIN+9
  3318 25B7 26 2F			rol :STACKORIGIN+STACKWIDTH+9
  3319 25B9 A5 1F			lda :STACKORIGIN+9
  3320 25BB 18 6D 7A 7E			add O
  3321 25BF 85 1F			sta :STACKORIGIN+9
  3322 25C1 A5 2F			lda :STACKORIGIN+STACKWIDTH+9
  3323 25C3 69 00			adc #$00
  3324 25C5 06 1F			asl :STACKORIGIN+9
  3325 25C7 2A				rol @
  3326 25C8 06 1F			asl :STACKORIGIN+9
  3327 25CA 2A				rol @
  3328 25CB 85 2F			sta :STACKORIGIN+STACKWIDTH+9
  3329 25CD A9 00			lda #$00
  3330 25CF 85 30			sta :STACKORIGIN+STACKWIDTH+10
  3331 25D1 AD 7B 7E			lda H
  3332 25D4 0A				asl @
  3333 25D5 26 30			rol :STACKORIGIN+STACKWIDTH+10
  3334 25D7 0A				asl @
  3335 25D8 26 30			rol :STACKORIGIN+STACKWIDTH+10
  3336 25DA 18 6D 7B 7E			add H
  3337 25DE 85 20			sta :STACKORIGIN+10
  3338 25E0 A5 30			lda :STACKORIGIN+STACKWIDTH+10
  3339 25E2 69 00			adc #$00
  3340 25E4 85 30			sta :STACKORIGIN+STACKWIDTH+10
  3341 25E6 06 20			asl :STACKORIGIN+10
  3342 25E8 26 30			rol :STACKORIGIN+STACKWIDTH+10
  3343 25EA A5 20			lda :STACKORIGIN+10
  3344 25EC 18 6D 7A 7E			add O
  3345 25F0 85 20			sta :STACKORIGIN+10
  3346 25F2 A5 30			lda :STACKORIGIN+STACKWIDTH+10
  3347 25F4 69 00			adc #$00
  3348 25F6 06 20			asl :STACKORIGIN+10
  3349 25F8 2A				rol @
  3350 25F9 06 20			asl :STACKORIGIN+10
  3351 25FB 2A				rol @
  3352 25FC 85 30			sta :STACKORIGIN+STACKWIDTH+10
  3353 25FE AD 7E 29			lda WEIGHTSOUTPUT
  3354 2601 18 65 20			add :STACKORIGIN+10
  3355 2604 85 04			sta :bp2
  3356 2606 AD 7F 29			lda WEIGHTSOUTPUT+1
  3357 2609 65 30			adc :STACKORIGIN+STACKWIDTH+10
  3358 260B 85 05			sta :bp2+1
  3359 260D A0 00			ldy #$00
  3360 260F B1 04			lda (:bp2),y
  3361 2611 85 20			sta :STACKORIGIN+10
  3362 2613 C8				iny
  3363 2614 B1 04			lda (:bp2),y
  3364 2616 85 30			sta :STACKORIGIN+STACKWIDTH+10
  3365 2618 C8				iny
  3366 2619 B1 04			lda (:bp2),y
  3367 261B 85 40			sta :STACKORIGIN+STACKWIDTH*2+10
  3368 261D C8				iny
  3369 261E B1 04			lda (:bp2),y
  3370 2620 85 50			sta :STACKORIGIN+STACKWIDTH*3+10
  3371 2622 AD 7A 7E			lda O
  3372 2625 0A				asl @
  3373 2626 0A				asl @
  3374 2627 A8				tay
  3375 2628 B9 2A 7E			lda adr.GRADIENTSOUTPUT,y
  3376 262B 85 0A			sta :FP2MAN0
  3377 262D B9 2B 7E			lda adr.GRADIENTSOUTPUT+1,y
  3378 2630 85 0B			sta :FP2MAN1
  3379 2632 B9 2C 7E			lda adr.GRADIENTSOUTPUT+2,y
  3380 2635 85 0C			sta :FP2MAN2
  3381 2637 B9 2D 7E			lda adr.GRADIENTSOUTPUT+3,y
  3382 263A 85 0D			sta :FP2MAN3
  3383 263C A9 00			lda #$00
  3384 263E 85 06			sta :FP1MAN0
  3385 2640 85 07			sta :FP1MAN1
  3386 2642 85 08			sta :FP1MAN2
  3387 2644 A9 3F			lda #$3F
  3388 2646 85 09			sta :FP1MAN3
  3389 2648 20 F8 10			jsr @FMUL
  3390 264B A5 0E			lda :FPMAN0
  3391 264D 85 06			sta :FP1MAN0
  3392 264F A5 0F			lda :FPMAN1
  3393 2651 85 07			sta :FP1MAN1
  3394 2653 A5 10			lda :FPMAN2
  3395 2655 85 08			sta :FP1MAN2
  3396 2657 A5 11			lda :FPMAN3
  3397 2659 85 09			sta :FP1MAN3
  3398 265B AD 7B 7E			lda H
  3399 265E 0A				asl @
  3400 265F 0A				asl @
  3401 2660 A8				tay
  3402 2661 B9 3A 7B			lda adr.ACTIVATIONSHIDDEN,y
  3403 2664 85 0A			sta :FP2MAN0
  3404 2666 B9 3B 7B			lda adr.ACTIVATIONSHIDDEN+1,y
  3405 2669 85 0B			sta :FP2MAN1
  3406 266B B9 3C 7B			lda adr.ACTIVATIONSHIDDEN+2,y
  3407 266E 85 0C			sta :FP2MAN2
  3408 2670 B9 3D 7B			lda adr.ACTIVATIONSHIDDEN+3,y
  3409 2673 85 0D			sta :FP2MAN3
  3410 2675 20 F8 10			jsr @FMUL
  3411 2678 A5 0E			lda :FPMAN0
  3412 267A 85 0A			sta :FP2MAN0
  3413 267C A5 0F			lda :FPMAN1
  3414 267E 85 0B			sta :FP2MAN1
  3415 2680 A5 10			lda :FPMAN2
  3416 2682 85 0C			sta :FP2MAN2
  3417 2684 A5 11			lda :FPMAN3
  3418 2686 85 0D			sta :FP2MAN3
  3419 2688 A5 20			lda :STACKORIGIN+10
  3420 268A 85 06			sta :FP1MAN0
  3421 268C A5 30			lda :STACKORIGIN+STACKWIDTH+10
  3422 268E 85 07			sta :FP1MAN1
  3423 2690 A5 40			lda :STACKORIGIN+STACKWIDTH*2+10
  3424 2692 85 08			sta :FP1MAN2
  3425 2694 A5 50			lda :STACKORIGIN+STACKWIDTH*3+10
  3426 2696 85 09			sta :FP1MAN3
  3427 2698 20 91 0F			jsr @FSUB
  3428 269B AD 7E 29			lda WEIGHTSOUTPUT
  3429 269E 18 65 1F			add :STACKORIGIN+9
  3430 26A1 85 04			sta :bp2
  3431 26A3 AD 7F 29			lda WEIGHTSOUTPUT+1
  3432 26A6 65 2F			adc :STACKORIGIN+STACKWIDTH+9
  3433 26A8 85 05			sta :bp2+1
  3434 26AA A0 00			ldy #$00
  3435 26AC A5 0E			lda :FPMAN0
  3436 26AE 91 04			sta (:bp2),y
  3437 26B0 C8				iny
  3438 26B1 A5 0F			lda :FPMAN1
  3439 26B3 91 04			sta (:bp2),y
  3440 26B5 C8				iny
  3441 26B6 A5 10			lda :FPMAN2
  3442 26B8 91 04			sta (:bp2),y
  3443 26BA C8				iny
  3444 26BB A5 11			lda :FPMAN3
  3445 26BD 91 04			sta (:bp2),y
  3446
  3447 				; --- ForToDoEpilog
  3448 26BF EE 7A 7E			inc O
  3449 26C2 F0 03 4C 92 25		jne l_0838
  3450 26C7			l_0846
  3451
  3452 				; --- ForToDoEpilog
  3453 26C7 EE 7B 7E			inc H
  3454 26CA F0 03 4C 83 25		jne l_0821
  3455 26CF			l_082F
  3456
  3457 				; optimize OK (NEURALNET), line = 193
  3458
  3459 26CF A9 00			lda #$00
  3460 26D1 8D 7C 7E			sta I
  3461
  3462 26D4			l_0889
  3463 				; --- ForToDoCondition
  3464 26D4 AD 7C 7E			lda I
  3465 26D7 4A				lsr @
  3466 26D8 4A				lsr @
  3467 26D9 4A				lsr @
  3468 26DA AC 77 7E 84 04 AC + 	mwy INPUT :bp2
  3469 26E4 A8				tay
  3470 26E5 B1 04			lda (:bp2),y
  3471 26E7 85 1F			sta :STACKORIGIN+9
  3472 26E9 AD 7C 7E			lda I
  3473 26EC 29 07			and #$07
  3474 26EE 85 22			sta :STACKORIGIN+12
  3475 26F0 A9 07			lda #$07
  3476 26F2 38 E5 22			sub :STACKORIGIN+12
  3477 26F5 85 21			sta :STACKORIGIN+11
  3478 26F7 A9 00			lda #$00
  3479 26F9 85 50			sta :STACKORIGIN+STACKWIDTH*3+10
  3480 26FB 85 40			sta :STACKORIGIN+STACKWIDTH*2+10
  3481 26FD 85 30			sta :STACKORIGIN+STACKWIDTH+10
  3482 26FF A9 01			lda #$01
  3483 2701 A4 21			ldy :STACKORIGIN+11
  3484 2703 F0 0A			beq l_0001_e
  3485 2705			l_0001_b
  3486 2705 0A				asl @
  3487 2706 26 30			rol :STACKORIGIN+STACKWIDTH+10
  3488 2708 26 40			rol :STACKORIGIN+STACKWIDTH*2+10
  3489 270A 26 50			rol :STACKORIGIN+STACKWIDTH*3+10
  3490 270C 88				dey
  3491 270D D0 F6			bne l_0001_b
  3492 270F			l_0001_e
  3493 270F 25 1F			and :STACKORIGIN+9
  3494 2711 F0 12			jeq l_08C2
  3495
  3496 				; optimize OK (NEURALNET), line = 196
  3497
  3498 2713 A9 00			lda #$00
  3499 2715 8D 81 7E			sta INPUTBIT
  3500 2718 8D 82 7E			sta INPUTBIT+1
  3501 271B A9 80			lda #$80
  3502 271D 8D 83 7E			sta INPUTBIT+2
  3503 2720 A9 3F			lda #$3F
  3504 2722 4C 30 27			jmp l_08D0
  3505 2725			l_08C2
  3506
  3507 				; optimize OK (NEURALNET), line = 198
  3508
  3509 2725 A9 00			lda #$00
  3510 2727 8D 81 7E			sta INPUTBIT
  3511 272A 8D 82 7E			sta INPUTBIT+1
  3512 272D 8D 83 7E			sta INPUTBIT+2
  3513 2730			l_08D0
  3514 2730 8D 84 7E			sta INPUTBIT+3
  3515
  3516 				; optimize OK (NEURALNET), line = 200
  3517
  3518 2733 A9 00			lda #$00
  3519 2735 8D 7B 7E			sta H
  3520
  3521 2738			l_08DD
  3522 				; --- ForToDoCondition
  3523 2738 AD 7B 7E			lda H
  3524 273B C9 0E			cmp #$0E
  3525 273D 90 03 4C 45 28		jcs l_08EB
  3526
  3527 				; optimize OK (NEURALNET), line = 201
  3528
  3529 2742 AD 7C 7E			lda I
  3530 2745 85 0E			sta :ecx
  3531 2747 A9 0E			lda #$0E
  3532 2749 85 06			sta :eax
  3533 					.ifdef fmulinit
  3534 					fmulu_8
  3535 					els
  3536 274B 20 E9 0C			imulCL
  3537 					eif
  3538 274E A5 06			lda :eax
  3539 2750 18 6D 7B 7E			add H
  3540 2754 85 1F			sta :STACKORIGIN+9
  3541 2756 A5 07			lda :eax+1
  3542 2758 69 00			adc #$00
  3543 275A 06 1F			asl :STACKORIGIN+9
  3544 275C 2A				rol @
  3545 275D 06 1F			asl :STACKORIGIN+9
  3546 275F 2A				rol @
  3547 2760 85 2F			sta :STACKORIGIN+STACKWIDTH+9
  3548 2762 AD 7C 7E			lda I
  3549 2765 85 0E			sta :ecx
  3550 2767 A9 0E			lda #$0E
  3551 2769 85 06			sta :eax
  3552 					.ifdef fmulinit
  3553 					fmulu_8
  3554 					els
  3555 276B 20 E9 0C			imulCL
  3556 					eif
  3557 276E A5 06			lda :eax
  3558 2770 18 6D 7B 7E			add H
  3559 2774 85 20			sta :STACKORIGIN+10
  3560 2776 A5 07			lda :eax+1
  3561 2778 69 00			adc #$00
  3562 277A 06 20			asl :STACKORIGIN+10
  3563 277C 2A				rol @
  3564 277D 06 20			asl :STACKORIGIN+10
  3565 277F 2A				rol @
  3566 2780 85 30			sta :STACKORIGIN+STACKWIDTH+10
  3567 2782 AD 78 29			lda WEIGHTSHIDDEN
  3568 2785 18 65 20			add :STACKORIGIN+10
  3569 2788 85 04			sta :bp2
  3570 278A AD 79 29			lda WEIGHTSHIDDEN+1
  3571 278D 65 30			adc :STACKORIGIN+STACKWIDTH+10
  3572 278F 85 05			sta :bp2+1
  3573 2791 A0 00			ldy #$00
  3574 2793 B1 04			lda (:bp2),y
  3575 2795 85 20			sta :STACKORIGIN+10
  3576 2797 C8				iny
  3577 2798 B1 04			lda (:bp2),y
  3578 279A 85 30			sta :STACKORIGIN+STACKWIDTH+10
  3579 279C C8				iny
  3580 279D B1 04			lda (:bp2),y
  3581 279F 85 40			sta :STACKORIGIN+STACKWIDTH*2+10
  3582 27A1 C8				iny
  3583 27A2 B1 04			lda (:bp2),y
  3584 27A4 85 50			sta :STACKORIGIN+STACKWIDTH*3+10
  3585 27A6 AD 7B 7E			lda H
  3586 27A9 0A				asl @
  3587 27AA 0A				asl @
  3588 27AB A8				tay
  3589 27AC B9 F2 7D			lda adr.GRADIENTSHIDDEN,y
  3590 27AF 85 0A			sta :FP2MAN0
  3591 27B1 B9 F3 7D			lda adr.GRADIENTSHIDDEN+1,y
  3592 27B4 85 0B			sta :FP2MAN1
  3593 27B6 B9 F4 7D			lda adr.GRADIENTSHIDDEN+2,y
  3594 27B9 85 0C			sta :FP2MAN2
  3595 27BB B9 F5 7D			lda adr.GRADIENTSHIDDEN+3,y
  3596 27BE 85 0D			sta :FP2MAN3
  3597 27C0 A9 00			lda #$00
  3598 27C2 85 06			sta :FP1MAN0
  3599 27C4 85 07			sta :FP1MAN1
  3600 27C6 85 08			sta :FP1MAN2
  3601 27C8 A9 3F			lda #$3F
  3602 27CA 85 09			sta :FP1MAN3
  3603 27CC 20 F8 10			jsr @FMUL
  3604 27CF A5 0E			lda :FPMAN0
  3605 27D1 85 06			sta :FP1MAN0
  3606 27D3 A5 0F			lda :FPMAN1
  3607 27D5 85 07			sta :FP1MAN1
  3608 27D7 A5 10			lda :FPMAN2
  3609 27D9 85 08			sta :FP1MAN2
  3610 27DB A5 11			lda :FPMAN3
  3611 27DD 85 09			sta :FP1MAN3
  3612 27DF AD 81 7E			lda INPUTBIT
  3613 27E2 85 0A			sta :FP2MAN0
  3614 27E4 AD 82 7E			lda INPUTBIT+1
  3615 27E7 85 0B			sta :FP2MAN1
  3616 27E9 AD 83 7E			lda INPUTBIT+2
  3617 27EC 85 0C			sta :FP2MAN2
  3618 27EE AD 84 7E			lda INPUTBIT+3
  3619 27F1 85 0D			sta :FP2MAN3
  3620 27F3 20 F8 10			jsr @FMUL
  3621 27F6 A5 0E			lda :FPMAN0
  3622 27F8 85 0A			sta :FP2MAN0
  3623 27FA A5 0F			lda :FPMAN1
  3624 27FC 85 0B			sta :FP2MAN1
  3625 27FE A5 10			lda :FPMAN2
  3626 2800 85 0C			sta :FP2MAN2
  3627 2802 A5 11			lda :FPMAN3
  3628 2804 85 0D			sta :FP2MAN3
  3629 2806 A5 20			lda :STACKORIGIN+10
  3630 2808 85 06			sta :FP1MAN0
  3631 280A A5 30			lda :STACKORIGIN+STACKWIDTH+10
  3632 280C 85 07			sta :FP1MAN1
  3633 280E A5 40			lda :STACKORIGIN+STACKWIDTH*2+10
  3634 2810 85 08			sta :FP1MAN2
  3635 2812 A5 50			lda :STACKORIGIN+STACKWIDTH*3+10
  3636 2814 85 09			sta :FP1MAN3
  3637 2816 20 91 0F			jsr @FSUB
  3638 2819 AD 78 29			lda WEIGHTSHIDDEN
  3639 281C 18 65 1F			add :STACKORIGIN+9
  3640 281F 85 04			sta :bp2
  3641 2821 AD 79 29			lda WEIGHTSHIDDEN+1
  3642 2824 65 2F			adc :STACKORIGIN+STACKWIDTH+9
  3643 2826 85 05			sta :bp2+1
  3644 2828 A0 00			ldy #$00
  3645 282A A5 0E			lda :FPMAN0
  3646 282C 91 04			sta (:bp2),y
  3647 282E C8				iny
  3648 282F A5 0F			lda :FPMAN1
  3649 2831 91 04			sta (:bp2),y
  3650 2833 C8				iny
  3651 2834 A5 10			lda :FPMAN2
  3652 2836 91 04			sta (:bp2),y
  3653 2838 C8				iny
  3654 2839 A5 11			lda :FPMAN3
  3655 283B 91 04			sta (:bp2),y
  3656
  3657 				; --- ForToDoEpilog
  3658 283D EE 7B 7E			inc H
  3659 2840 F0 03 4C 38 27		jne l_08DD
  3660 2845			l_08EB
  3661
  3662 				; --- ForToDoEpilog
  3663 2845 EE 7C 7E			inc I
  3664 2848 F0 03 4C D4 26		jne l_0889
  3665 284D			l_0897
  3666
  3667 				; optimize OK (NEURALNET), line = 204
  3668
  3669 284D A9 00			lda #$00
  3670 284F 8D 7A 7E			sta O
  3671
  3672 2852			l_092B
  3673 				; --- ForToDoCondition
  3674 2852 AD 7A 7E			lda O
  3675 2855 C9 0A			cmp #$0A
  3676 2857 90 03 4C E2 28		jcs l_0939
  3677
  3678 				; optimize OK (NEURALNET), line = 205
  3679
  3680 285C 85 1F			sta :STACKORIGIN+9
  3681 285E 0A				asl @
  3682 285F 0A				asl @
  3683 2860 A8				tay
  3684 2861 B9 A2 7D			lda adr.BIASESOUTPUT,y
  3685 2864 85 20			sta :STACKORIGIN+10
  3686 2866 B9 A3 7D			lda adr.BIASESOUTPUT+1,y
  3687 2869 85 30			sta :STACKORIGIN+STACKWIDTH+10
  3688 286B B9 A4 7D			lda adr.BIASESOUTPUT+2,y
  3689 286E 85 40			sta :STACKORIGIN+STACKWIDTH*2+10
  3690 2870 B9 A5 7D			lda adr.BIASESOUTPUT+3,y
  3691 2873 85 50			sta :STACKORIGIN+STACKWIDTH*3+10
  3692 2875 AD 7A 7E			lda O
  3693 2878 0A				asl @
  3694 2879 0A				asl @
  3695 287A A8				tay
  3696 287B B9 2A 7E			lda adr.GRADIENTSOUTPUT,y
  3697 287E 85 0A			sta :FP2MAN0
  3698 2880 B9 2B 7E			lda adr.GRADIENTSOUTPUT+1,y
  3699 2883 85 0B			sta :FP2MAN1
  3700 2885 B9 2C 7E			lda adr.GRADIENTSOUTPUT+2,y
  3701 2888 85 0C			sta :FP2MAN2
  3702 288A B9 2D 7E			lda adr.GRADIENTSOUTPUT+3,y
  3703 288D 85 0D			sta :FP2MAN3
  3704 288F A9 00			lda #$00
  3705 2891 85 06			sta :FP1MAN0
  3706 2893 85 07			sta :FP1MAN1
  3707 2895 85 08			sta :FP1MAN2
  3708 2897 A9 3F			lda #$3F
  3709 2899 85 09			sta :FP1MAN3
  3710 289B 20 F8 10			jsr @FMUL
  3711 289E A5 0E			lda :FPMAN0
  3712 28A0 85 0A			sta :FP2MAN0
  3713 28A2 A5 0F			lda :FPMAN1
  3714 28A4 85 0B			sta :FP2MAN1
  3715 28A6 A5 10			lda :FPMAN2
  3716 28A8 85 0C			sta :FP2MAN2
  3717 28AA A5 11			lda :FPMAN3
  3718 28AC 85 0D			sta :FP2MAN3
  3719 28AE A5 20			lda :STACKORIGIN+10
  3720 28B0 85 06			sta :FP1MAN0
  3721 28B2 A5 30			lda :STACKORIGIN+STACKWIDTH+10
  3722 28B4 85 07			sta :FP1MAN1
  3723 28B6 A5 40			lda :STACKORIGIN+STACKWIDTH*2+10
  3724 28B8 85 08			sta :FP1MAN2
  3725 28BA A5 50			lda :STACKORIGIN+STACKWIDTH*3+10
  3726 28BC 85 09			sta :FP1MAN3
  3727 28BE 20 91 0F			jsr @FSUB
  3728 28C1 A5 1F			lda :STACKORIGIN+9
  3729 28C3 0A				asl @
  3730 28C4 0A				asl @
  3731 28C5 A8				tay
  3732 28C6 A5 0E			lda :FPMAN0
  3733 28C8 99 A2 7D			sta adr.BIASESOUTPUT,y
  3734 28CB A5 0F			lda :FPMAN1
  3735 28CD 99 A3 7D			sta adr.BIASESOUTPUT+1,y
  3736 28D0 A5 10			lda :FPMAN2
  3737 28D2 99 A4 7D			sta adr.BIASESOUTPUT+2,y
  3738 28D5 A5 11			lda :FPMAN3
  3739 28D7 99 A5 7D			sta adr.BIASESOUTPUT+3,y
  3740
  3741 				; --- ForToDoEpilog
  3742 28DA EE 7A 7E			inc O
  3743 28DD F0 03 4C 52 28		jne l_092B
  3744 28E2			l_0939
  3745
  3746 				; optimize OK (NEURALNET), line = 207
  3747
  3748 28E2 A9 00			lda #$00
  3749 28E4 8D 7B 7E			sta H
  3750
  3751 28E7			l_095C
  3752 				; --- ForToDoCondition
  3753 28E7 AD 7B 7E			lda H
  3754 28EA C9 0E			cmp #$0E
  3755 28EC 90 03 4C 77 29		jcs l_096A
  3756
  3757 				; optimize OK (NEURALNET), line = 208
  3758
  3759 28F1 85 1F			sta :STACKORIGIN+9
  3760 28F3 0A				asl @
  3761 28F4 0A				asl @
  3762 28F5 A8				tay
  3763 28F6 B9 02 7B			lda adr.BIASESHIDDEN,y
  3764 28F9 85 20			sta :STACKORIGIN+10
  3765 28FB B9 03 7B			lda adr.BIASESHIDDEN+1,y
  3766 28FE 85 30			sta :STACKORIGIN+STACKWIDTH+10
  3767 2900 B9 04 7B			lda adr.BIASESHIDDEN+2,y
  3768 2903 85 40			sta :STACKORIGIN+STACKWIDTH*2+10
  3769 2905 B9 05 7B			lda adr.BIASESHIDDEN+3,y
  3770 2908 85 50			sta :STACKORIGIN+STACKWIDTH*3+10
  3771 290A AD 7B 7E			lda H
  3772 290D 0A				asl @
  3773 290E 0A				asl @
  3774 290F A8				tay
  3775 2910 B9 F2 7D			lda adr.GRADIENTSHIDDEN,y
  3776 2913 85 0A			sta :FP2MAN0
  3777 2915 B9 F3 7D			lda adr.GRADIENTSHIDDEN+1,y
  3778 2918 85 0B			sta :FP2MAN1
  3779 291A B9 F4 7D			lda adr.GRADIENTSHIDDEN+2,y
  3780 291D 85 0C			sta :FP2MAN2
  3781 291F B9 F5 7D			lda adr.GRADIENTSHIDDEN+3,y
  3782 2922 85 0D			sta :FP2MAN3
  3783 2924 A9 00			lda #$00
  3784 2926 85 06			sta :FP1MAN0
  3785 2928 85 07			sta :FP1MAN1
  3786 292A 85 08			sta :FP1MAN2
  3787 292C A9 3F			lda #$3F
  3788 292E 85 09			sta :FP1MAN3
  3789 2930 20 F8 10			jsr @FMUL
  3790 2933 A5 0E			lda :FPMAN0
  3791 2935 85 0A			sta :FP2MAN0
  3792 2937 A5 0F			lda :FPMAN1
  3793 2939 85 0B			sta :FP2MAN1
  3794 293B A5 10			lda :FPMAN2
  3795 293D 85 0C			sta :FP2MAN2
  3796 293F A5 11			lda :FPMAN3
  3797 2941 85 0D			sta :FP2MAN3
  3798 2943 A5 20			lda :STACKORIGIN+10
  3799 2945 85 06			sta :FP1MAN0
  3800 2947 A5 30			lda :STACKORIGIN+STACKWIDTH+10
  3801 2949 85 07			sta :FP1MAN1
  3802 294B A5 40			lda :STACKORIGIN+STACKWIDTH*2+10
  3803 294D 85 08			sta :FP1MAN2
  3804 294F A5 50			lda :STACKORIGIN+STACKWIDTH*3+10
  3805 2951 85 09			sta :FP1MAN3
  3806 2953 20 91 0F			jsr @FSUB
  3807 2956 A5 1F			lda :STACKORIGIN+9
  3808 2958 0A				asl @
  3809 2959 0A				asl @
  3810 295A A8				tay
  3811 295B A5 0E			lda :FPMAN0
  3812 295D 99 02 7B			sta adr.BIASESHIDDEN,y
  3813 2960 A5 0F			lda :FPMAN1
  3814 2962 99 03 7B			sta adr.BIASESHIDDEN+1,y
  3815 2965 A5 10			lda :FPMAN2
  3816 2967 99 04 7B			sta adr.BIASESHIDDEN+2,y
  3817 296A A5 11			lda :FPMAN3
  3818 296C 99 05 7B			sta adr.BIASESHIDDEN+3,y
  3819
  3820 				; --- ForToDoEpilog
  3821 296F EE 7B 7E			inc H
  3822 2972 F0 03 4C E7 28		jne l_095C
  3823 2977			l_096A
  3824
  3825 				; ------------------------------------------------------------
  3826
  3827 = 7E77			INPUT	= DATAORIGIN+$4096
  3828 = 7E79			OUTPUT	= DATAORIGIN+$4098
  3829 = 7E7A			O	= DATAORIGIN+$4099
  3830 = 7E7B			H	= DATAORIGIN+$409A
  3831 = 7E7C			I	= DATAORIGIN+$409B
  3832 = 7E7D			OUTPUTBIT	= DATAORIGIN+$409C
  3833 = 7E81			INPUTBIT	= DATAORIGIN+$40A0
  3834 = 7E85			GRADIENTHIDDENSUM	= DATAORIGIN+$40A4
  3835 = 7E89			PREDICTED	= DATAORIGIN+$40A8
  3836
  3837 = 7E77			@VarData	= INPUT
  3838 = 0013			@VarDataSize	= 19
  3839
  3840 2977			@exit
  3841 					.ifdef @new
  3842 					lda <@VarData
  3843 					sta :ztmp
  3844 					lda >@VarData
  3845 					ldy #@VarDataSize-1
  3846 					jmp @FreeMem
  3847 					els
  3848 2977 60				rts						; ret
  3849 					eif
  3850 				.endl
  3851
  3852 				; ------------------------------------------------------------
  3853
  3854 = 0064			BATCH_ROW_COUNT_MAX	= $64
  3855 = 0021			BATCH_ROW_LENGTH	= $21
  3856 = 0100			INPUT_LAYER_SIZE	= $0100
  3857 = 000E			HIDDEN_LAYER_SIZE	= $0E
  3858 = 000A			OUTPUT_LAYER_SIZE	= $0A
  3859 = 3F000000		LEARNING_RATE	= $3F000000
  3860 = 4302			adr.WEIGHTSHIDDEN	= [DATAORIGIN+$0521] .array [3584] .dword
  3861 2978			.var WEIGHTSHIDDEN	= adr.WEIGHTSHIDDEN .word
  3862 = 7B02			adr.BIASESHIDDEN	= [DATAORIGIN+$3D21] .array [14] .dword
  3863 2978			.var BIASESHIDDEN	= adr.BIASESHIDDEN .word
  3864 = 7B3A			adr.ACTIVATIONSHIDDEN	= [DATAORIGIN+$3D59] .array [14] .dword
  3865 2978			.var ACTIVATIONSHIDDEN	= adr.ACTIVATIONSHIDDEN .word
  3866 = 7B72			adr.WEIGHTSOUTPUT	= [DATAORIGIN+$3D91] .array [140] .dword
  3867 2978			.var WEIGHTSOUTPUT	= adr.WEIGHTSOUTPUT .word
  3868 = 7DA2			adr.BIASESOUTPUT	= [DATAORIGIN+$3FC1] .array [10] .dword
  3869 2978			.var BIASESOUTPUT	= adr.BIASESOUTPUT .word
  3870 = 7DCA			adr.ACTIVATIONSOUTPUT	= [DATAORIGIN+$3FE9] .array [10] .dword
  3871 2978			.var ACTIVATIONSOUTPUT	= adr.ACTIVATIONSOUTPUT .word
  3872 = 7DF2			adr.GRADIENTSHIDDEN	= [DATAORIGIN+$4011] .array [14] .dword
  3873 2978			.var GRADIENTSHIDDEN	= adr.GRADIENTSHIDDEN .word
  3874 = 7E2A			adr.GRADIENTSOUTPUT	= [DATAORIGIN+$4049] .array [10] .dword
  3875 2978			.var GRADIENTSOUTPUT	= adr.GRADIENTSOUTPUT .word
  3876 = 7E52			MAXOUTPUT	= DATAORIGIN+$4071
  3877 = 7E56			BATCHLENGTH	= DATAORIGIN+$4075
  3878
  3879 = 2978 02 43		WEIGHTSHIDDEN
  3879 = 297A 02 7B		BIASESHIDDEN
  3879 = 297C 3A 7B		ACTIVATIONSHIDDEN
  3879 = 297E 72 7B		WEIGHTSOUTPUT
  3879 = 2980 A2 7D		BIASESOUTPUT
  3879 = 2982 CA 7D		ACTIVATIONSOUTPUT
  3879 = 2984 F2 7D		GRADIENTSHIDDEN
  3879 = 2986 2A 7E		GRADIENTSOUTPUT
  3879 				.endl							; UNIT NEURALNET
  3880
  3881 				; ------------------------------------------------------------
  3882
  3883 2988			.local	HARDWARE					; UNIT
  3884
  3885 				; ------------------------------------------------------------
  3886
  3887 = DC00			CIA1PRA	= $DC00
  3888 = DC01			CIA1PRB	= $DC01
  3889 = DC02			CIA1DDRA	= $DC02
  3890 = DC03			CIA1DDRB	= $DC03
  3891 = DD00			CIA2PRA	= $DD00
  3892 = DD01			CIA2PRB	= $DD01
  3893 = DD02			CIA2DDRA	= $DD02
  3894 = DD03			CIA2DDRB	= $DD03
  3895
  3896 				.endl							; UNIT HARDWARE
  3897
  3898 				; ------------------------------------------------------------
  3899
  3900 2988			.local	JOYSTICK					; UNIT
  3901
  3902 2988			.local	RESETJOYSTICK					; PROCEDURE
  3903
  3904 				; optimize OK (JOYSTICK), line = 55
  3905
  3906 2988 A9 00			lda #$00
  3907 298A 8D 8A 7E			sta INPUTDX
  3908
  3909 				; optimize OK (JOYSTICK), line = 56
  3910
  3911 298D 8D 8B 7E			sta INPUTDY
  3912
  3913 				; optimize OK (JOYSTICK), line = 57
  3914
  3915 2990 8D 8C 7E			sta INPUTBUTTON
  3916
  3917 2993			@exit
  3918 					.ifdef @new
  3919 					lda <@VarData
  3920 					sta :ztmp
  3921 					lda >@VarData
  3922 					ldy #@VarDataSize-1
  3923 					jmp @FreeMem
  3924 					els
  3925 2993 60				rts						; ret
  3926 					eif
  3927 				.endl
  3928
  3929 2994			.local	READJOYSTICK2					; PROCEDURE
  3930
  3931 				; optimize FAIL ('RESETJOYSTICK', JOYSTICK), line = 82
  3932
  3933 2994 20 88 29			jsr RESETJOYSTICK
  3934
  3935 				; optimize OK (JOYSTICK), line = 83
  3936
  3937 2997 AD 02 DC			lda HARDWARE.CIA1DDRA
  3938 299A 8D 90 7E			sta BAKCIA
  3939
  3940 				; optimize OK (JOYSTICK), line = 84
  3941
  3942 299D A9 00			lda #$00
  3943 299F 8D 02 DC			sta HARDWARE.CIA1DDRA
  3944
  3945 				; optimize OK (JOYSTICK), line = 85
  3946
  3947 29A2			?volatile:
  3948 29A2 AD 00 DC			lda HARDWARE.CIA1PRA
  3949 29A5 8D 8F 7E			sta VALUE
  3950
  3951 				; optimize OK (JOYSTICK), line = 86
  3952
  3953 29A8 29 01			and #$01
  3954 29AA D0 03			jne l_09C4
  3955 29AC CE 8B 7E			dec INPUTDY
  3956 29AF			l_09C4
  3957
  3958 				; optimize OK (JOYSTICK), line = 87
  3959
  3960 29AF AD 8F 7E			lda VALUE
  3961 29B2 29 02			and #$02
  3962 29B4 D0 03			jne l_09E1
  3963 29B6 EE 8B 7E			inc INPUTDY
  3964 29B9			l_09E1
  3965
  3966 				; optimize OK (JOYSTICK), line = 88
  3967
  3968 29B9 AD 8F 7E			lda VALUE
  3969 29BC 29 04			and #$04
  3970 29BE D0 03			jne l_09FE
  3971 29C0 CE 8A 7E			dec INPUTDX
  3972 29C3			l_09FE
  3973
  3974 				; optimize OK (JOYSTICK), line = 89
  3975
  3976 29C3 AD 8F 7E			lda VALUE
  3977 29C6 29 08			and #$08
  3978 29C8 D0 03			jne l_0A1B
  3979 29CA EE 8A 7E			inc INPUTDX
  3980 29CD			l_0A1B
  3981
  3982 				; optimize OK (JOYSTICK), line = 90
  3983
  3984 29CD AD 8F 7E			lda VALUE
  3985 29D0 29 10			and #$10
  3986 29D2 D0 03			jne l_0A38
  3987 29D4 EE 8C 7E			inc INPUTBUTTON
  3988 29D7			l_0A38
  3989
  3990 				; optimize OK (JOYSTICK), line = 91
  3991
  3992 29D7 AD 8D 7E			lda PREVIOUSBUTTONSTATE
  3993 29DA D0 0B			jne l_0A57s
  3994 29DC AD 8C 7E			lda INPUTBUTTON
  3995 29DF C9 01			cmp #$01
  3996 29E1 D0 04			jne l_0A57s
  3997 29E3 A9 01 D0 02			lda:sne #$01
  3998 29E7 A9 00		l_0A57s	lda #$00
  3999 29E9 8D 8E 7E			sta BUTTONPRESSED
  4000
  4001 				; optimize OK (JOYSTICK), line = 92
  4002
  4003 29EC AD 8C 7E			lda INPUTBUTTON
  4004 29EF 8D 8D 7E			sta PREVIOUSBUTTONSTATE
  4005
  4006 				; optimize OK (JOYSTICK), line = 93
  4007
  4008 29F2 AD 90 7E			lda BAKCIA
  4009 29F5 8D 02 DC			sta HARDWARE.CIA1DDRA
  4010
  4011 				; ------------------------------------------------------------
  4012
  4013 = 7E8F			VALUE	= DATAORIGIN+$40AE
  4014 = 7E90			BAKCIA	= DATAORIGIN+$40AF
  4015
  4016 = 7E8F			@VarData	= VALUE
  4017 = 0002			@VarDataSize	= 2
  4018
  4019 29F8			@exit
  4020 					.ifdef @new
  4021 					lda <@VarData
  4022 					sta :ztmp
  4023 					lda >@VarData
  4024 					ldy #@VarDataSize-1
  4025 					jmp @FreeMem
  4026 					els
  4027 29F8 60				rts						; ret
  4028 					eif
  4029 				.endl
  4030
  4031 				; ------------------------------------------------------------
  4032
  4033 = 7E8A			INPUTDX	= DATAORIGIN+$40A9
  4034 = 7E8B			INPUTDY	= DATAORIGIN+$40AA
  4035 = 7E8C			INPUTBUTTON	= DATAORIGIN+$40AB
  4036 = 7E8D			PREVIOUSBUTTONSTATE	= DATAORIGIN+$40AC
  4037 = 7E8E			BUTTONPRESSED	= DATAORIGIN+$40AD
  4038
  4039 				.endl							; UNIT JOYSTICK
  4040
  4041 				; ------------------------------------------------------------
  4042
  4043 29F9			.local	MOUSE1531					; UNIT
  4044
  4045 				; ------------------------------------------------------------
  4046
  4047 = 7E91			MOUSEX	= DATAORIGIN+$40B0
  4048 = 7E93			MOUSEY	= DATAORIGIN+$40B2
  4049 = 7E95			DELTAX	= DATAORIGIN+$40B4
  4050 = 7E97			DELTAY	= DATAORIGIN+$40B6
  4051 = 7E99			MOUSELBM	= DATAORIGIN+$40B8
  4052 = 7E9A			MOUSERBM	= DATAORIGIN+$40B9
  4053 = 7E9B			OLDX	= DATAORIGIN+$40BA
  4054 = 7E9D			OLDY	= DATAORIGIN+$40BC
  4055 = 7E9F			OLDPOTX	= DATAORIGIN+$40BE
  4056 = 7EA0			OLDPOTY	= DATAORIGIN+$40BF
  4057 = 7EA1			MOUSEXALIAS	= DATAORIGIN+$40C0
  4058
  4059 				.endl							; UNIT MOUSE1531
  4060
  4061 				; ------------------------------------------------------------
  4062
  4063 29F9			.local	LIGHTPEN					; UNIT
  4064
  4065 29F9			.local	CHECKPEN					; PROCEDURE
  4066
  4067 				; optimize OK (LIGHTPEN), line = 60
  4068
  4069 29F9 A9 01			lda #$01
  4070 29FB 8D AD 7E			sta I
  4071
  4072 29FE			l_0A75
  4073 				; --- ForToDoCondition
  4074 29FE AD AD 7E			lda I
  4075 2A01 C9 06			cmp #$06
  4076 2A03 B0 2D			jcs l_0A83
  4077
  4078 				; optimize OK (LIGHTPEN), line = 62
  4079
  4080 2A05 A9 00			lda #$00
  4081 2A07 85 30			sta :STACKORIGIN+STACKWIDTH+10
  4082 2A09 AD 13 D0			lda C64.LIGHTPENX
  4083 2A0C 0A				asl @
  4084 2A0D 26 30			rol :STACKORIGIN+STACKWIDTH+10
  4085 2A0F 18 6D A3 7E			add PENX
  4086 2A13 8D A3 7E			sta PENX
  4087 2A16 AD A4 7E			lda PENX+1
  4088 2A19 65 30			adc :STACKORIGIN+STACKWIDTH+10
  4089 2A1B 8D A4 7E			sta PENX+1
  4090
  4091 				; optimize OK (LIGHTPEN), line = 63
  4092
  4093 2A1E AD A5 7E			lda PENY
  4094 2A21 18 6D 14 D0			add C64.LIGHTPENY
  4095 2A25 8D A5 7E			sta PENY
  4096 2A28 90 03			scc
  4097 2A2A EE A6 7E			inc PENY+1
  4098
  4099 				; --- ForToDoEpilog
  4100 2A2D EE AD 7E			inc I
  4101 2A30 D0 CC			jne l_0A75
  4102 2A32			l_0A83
  4103
  4104 				; optimize OK (LIGHTPEN), line = 65
  4105
  4106 2A32 AD 13 D0			lda C64.LIGHTPENX
  4107 2A35 8D A3 7E			sta PENX
  4108 2A38 A9 00			lda #$00
  4109 2A3A 0E A3 7E			asl PENX
  4110 2A3D 2A				rol @
  4111 2A3E 8D A4 7E			sta PENX+1
  4112
  4113 				; optimize OK (LIGHTPEN), line = 66
  4114
  4115 2A41 AD 14 D0			lda C64.LIGHTPENY
  4116 2A44 8D A5 7E			sta PENY
  4117 2A47 A9 00			lda #$00
  4118 2A49 8D A6 7E			sta PENY+1
  4119
  4120 				; optimize OK (LIGHTPEN), line = 67
  4121
  4122 2A4C AD A3 7E			lda PENX
  4123 2A4F 85 1F			sta :STACKORIGIN+9
  4124 2A51 A0 00			ldy #$00
  4125 2A53 AD A4 7E			lda PENX+1
  4126 2A56 10 01			spl
  4127 2A58 88				dey
  4128 2A59 85 2F			sta :STACKORIGIN+STACKWIDTH+9
  4129 2A5B 84 3F			sty :STACKORIGIN+STACKWIDTH*2+9
  4130 2A5D 84 4F			sty :STACKORIGIN+STACKWIDTH*3+9
  4131 2A5F A5 1F			lda :STACKORIGIN+9
  4132 2A61 38 E9 30			sub #$30
  4133 2A64 85 06			sta @INTEGER.DIV.A
  4134 2A66 A5 2F			lda :STACKORIGIN+STACKWIDTH+9
  4135 2A68 E9 00			sbc #$00
  4136 2A6A 85 07			sta @INTEGER.DIV.A+1
  4137 2A6C A5 3F			lda :STACKORIGIN+STACKWIDTH*2+9
  4138 2A6E E9 00			sbc #$00
  4139 2A70 85 08			sta @INTEGER.DIV.A+2
  4140 2A72 A5 4F			lda :STACKORIGIN+STACKWIDTH*3+9
  4141 2A74 E9 00			sbc #$00
  4142 2A76 85 09			sta @INTEGER.DIV.A+3
  4143 2A78 A9 08			lda #$08
  4144 2A7A 85 0E			sta @INTEGER.DIV.B
  4145 2A7C A9 00			lda #$00
  4146 2A7E 85 0F			sta @INTEGER.DIV.B+1
  4147 2A80 85 10			sta @INTEGER.DIV.B+2
  4148 2A82 85 11			sta @INTEGER.DIV.B+3
  4149 2A84 20 CC 0C			jsr @INTEGER.DIV
  4150 2A87 A5 06			lda :eax
  4151 2A89 8D A7 7E			sta PENCHARX
  4152
  4153 				; optimize OK (LIGHTPEN), line = 68
  4154
  4155 2A8C 10 05			jpl l_0AD1
  4156 2A8E A9 00			lda #$00
  4157 2A90 8D A7 7E			sta PENCHARX
  4158 2A93			l_0AD1
  4159
  4160 				; optimize OK (LIGHTPEN), line = 69
  4161
  4162 2A93 AD A7 7E			lda PENCHARX
  4163 2A96 38 E9 28			sub #$28
  4164 2A99 50 02			svc
  4165 2A9B 49 80			eor #$80
  4166 2A9D 30 05			jmi l_0AEA
  4167 2A9F A9 27			lda #$27
  4168 2AA1 8D A7 7E			sta PENCHARX
  4169 2AA4			l_0AEA
  4170
  4171 				; optimize OK (LIGHTPEN), line = 70
  4172
  4173 2AA4 AD A5 7E			lda PENY
  4174 2AA7 85 1F			sta :STACKORIGIN+9
  4175 2AA9 A0 00			ldy #$00
  4176 2AAB AD A6 7E			lda PENY+1
  4177 2AAE 10 01			spl
  4178 2AB0 88				dey
  4179 2AB1 85 2F			sta :STACKORIGIN+STACKWIDTH+9
  4180 2AB3 84 3F			sty :STACKORIGIN+STACKWIDTH*2+9
  4181 2AB5 84 4F			sty :STACKORIGIN+STACKWIDTH*3+9
  4182 2AB7 A5 1F			lda :STACKORIGIN+9
  4183 2AB9 38 E9 32			sub #$32
  4184 2ABC 85 06			sta @INTEGER.DIV.A
  4185 2ABE A5 2F			lda :STACKORIGIN+STACKWIDTH+9
  4186 2AC0 E9 00			sbc #$00
  4187 2AC2 85 07			sta @INTEGER.DIV.A+1
  4188 2AC4 A5 3F			lda :STACKORIGIN+STACKWIDTH*2+9
  4189 2AC6 E9 00			sbc #$00
  4190 2AC8 85 08			sta @INTEGER.DIV.A+2
  4191 2ACA A5 4F			lda :STACKORIGIN+STACKWIDTH*3+9
  4192 2ACC E9 00			sbc #$00
  4193 2ACE 85 09			sta @INTEGER.DIV.A+3
  4194 2AD0 A9 08			lda #$08
  4195 2AD2 85 0E			sta @INTEGER.DIV.B
  4196 2AD4 A9 00			lda #$00
  4197 2AD6 85 0F			sta @INTEGER.DIV.B+1
  4198 2AD8 85 10			sta @INTEGER.DIV.B+2
  4199 2ADA 85 11			sta @INTEGER.DIV.B+3
  4200 2ADC 20 CC 0C			jsr @INTEGER.DIV
  4201 2ADF A5 06			lda :eax
  4202 2AE1 8D A8 7E			sta PENCHARY
  4203
  4204 				; optimize OK (LIGHTPEN), line = 71
  4205
  4206 2AE4 10 05			jpl l_0B10
  4207 2AE6 A9 00			lda #$00
  4208 2AE8 8D A8 7E			sta PENCHARY
  4209 2AEB			l_0B10
  4210
  4211 				; optimize OK (LIGHTPEN), line = 72
  4212
  4213 2AEB AD A8 7E			lda PENCHARY
  4214 2AEE 38 E9 19			sub #$19
  4215 2AF1 50 02			svc
  4216 2AF3 49 80			eor #$80
  4217 2AF5 30 05			jmi l_0B29
  4218 2AF7 A9 18			lda #$18
  4219 2AF9 8D A8 7E			sta PENCHARY
  4220 2AFC			l_0B29
  4221
  4222 				; ------------------------------------------------------------
  4223
  4224 = 7EAD			I	= DATAORIGIN+$40CC
  4225
  4226 = 7EAD			@VarData	= I
  4227 = 0001			@VarDataSize	= 1
  4228
  4229 2AFC			@exit
  4230 					.ifdef @new
  4231 					lda <@VarData
  4232 					sta :ztmp
  4233 					lda >@VarData
  4234 					ldy #@VarDataSize-1
  4235 					jmp @FreeMem
  4236 					els
  4237 2AFC 60				rts						; ret
  4238 					eif
  4239 				.endl
  4240
  4241 				; ------------------------------------------------------------
  4242
  4243 = 7EA3			PENX	= DATAORIGIN+$40C2
  4244 = 7EA5			PENY	= DATAORIGIN+$40C4
  4245 = 7EA7			PENCHARX	= DATAORIGIN+$40C6
  4246 = 7EA8			PENCHARY	= DATAORIGIN+$40C7
  4247 = 7EA9			OLDX	= DATAORIGIN+$40C8
  4248 = 7EAB			OLDY	= DATAORIGIN+$40CA
  4249
  4250 				.endl							; UNIT LIGHTPEN
  4251
  4252 2AFD			.local	MOVECURSOR					; PROCEDURE
  4253
  4254 				; optimize FAIL (1, /Users/manuelvio/sviluppo/PETSCII-Boy-3000/pascal/PetsciiBoy3000.pas), line = 143
  4255
  4256 2AFD E8				inx
  4257 2AFE A9 0F 95 16			mva #$0F :STACKORIGIN,x
  4258 2B02 A9 00 95 26			mva #$00 :STACKORIGIN+STACKWIDTH,x
  4259 2B06 E8				inx
  4260 2B07 A9 00 95 16			mva #$00 :STACKORIGIN,x
  4261 2B0B 95 26			sta :STACKORIGIN+STACKWIDTH,x
  4262 2B0D E8				inx
  4263 2B0E AD FC 9B 95 16		mva X :STACKORIGIN,x
  4264 2B13 20 0E 0C			jsr @expandSHORT2SMALL
  4265 2B16 B5 16			lda :STACKORIGIN,x
  4266 2B18 8D A8 3E			sta MATH.MAX.@0201840000184000.X
  4267 2B1B B5 26			lda :STACKORIGIN+STACKWIDTH,x
  4268 2B1D 8D A9 3E			sta MATH.MAX.@0201840000184000.X+1
  4269 2B20 CA				dex
  4270 2B21 B5 16			lda :STACKORIGIN,x
  4271 2B23 8D AA 3E			sta MATH.MAX.@0201840000184000.Y
  4272 2B26 B5 26			lda :STACKORIGIN+STACKWIDTH,x
  4273 2B28 8D AB 3E			sta MATH.MAX.@0201840000184000.Y+1
  4274 2B2B CA				dex
  4275 2B2C 20 1D 1A			jsr MATH.MAX.@0201840000184000
  4276 2B2F AD AC 3E			lda MATH.MAX.@0201840000184000.RESULT
  4277 2B32 8D A2 3E			sta MATH.MIN.@0201840000184000.X
  4278 2B35 AD AD 3E			lda MATH.MAX.@0201840000184000.RESULT+1
  4279 2B38 8D A3 3E			sta MATH.MIN.@0201840000184000.X+1
  4280 2B3B B5 16			lda :STACKORIGIN,x
  4281 2B3D 8D A4 3E			sta MATH.MIN.@0201840000184000.Y
  4282 2B40 B5 26			lda :STACKORIGIN+STACKWIDTH,x
  4283 2B42 8D A5 3E			sta MATH.MIN.@0201840000184000.Y+1
  4284 2B45 CA				dex
  4285 2B46 20 F2 19			jsr MATH.MIN.@0201840000184000
  4286 2B49 AD A6 3E			lda MATH.MIN.@0201840000184000.RESULT
  4287 2B4C 8D EC 9B			sta CURSORX
  4288
  4289 				; optimize FAIL (1, /Users/manuelvio/sviluppo/PETSCII-Boy-3000/pascal/PetsciiBoy3000.pas), line = 144
  4290
  4291 2B4F E8				inx
  4292 2B50 A9 0F 95 16			mva #$0F :STACKORIGIN,x
  4293 2B54 A9 00 95 26			mva #$00 :STACKORIGIN+STACKWIDTH,x
  4294 2B58 E8				inx
  4295 2B59 A9 00 95 16			mva #$00 :STACKORIGIN,x
  4296 2B5D 95 26			sta :STACKORIGIN+STACKWIDTH,x
  4297 2B5F E8				inx
  4298 2B60 AD FD 9B 95 16		mva Y :STACKORIGIN,x
  4299 2B65 20 0E 0C			jsr @expandSHORT2SMALL
  4300 2B68 B5 16			lda :STACKORIGIN,x
  4301 2B6A 8D A8 3E			sta MATH.MAX.@0201840000184000.X
  4302 2B6D B5 26			lda :STACKORIGIN+STACKWIDTH,x
  4303 2B6F 8D A9 3E			sta MATH.MAX.@0201840000184000.X+1
  4304 2B72 CA				dex
  4305 2B73 B5 16			lda :STACKORIGIN,x
  4306 2B75 8D AA 3E			sta MATH.MAX.@0201840000184000.Y
  4307 2B78 B5 26			lda :STACKORIGIN+STACKWIDTH,x
  4308 2B7A 8D AB 3E			sta MATH.MAX.@0201840000184000.Y+1
  4309 2B7D CA				dex
  4310 2B7E 20 1D 1A			jsr MATH.MAX.@0201840000184000
  4311 2B81 AD AC 3E			lda MATH.MAX.@0201840000184000.RESULT
  4312 2B84 8D A2 3E			sta MATH.MIN.@0201840000184000.X
  4313 2B87 AD AD 3E			lda MATH.MAX.@0201840000184000.RESULT+1
  4314 2B8A 8D A3 3E			sta MATH.MIN.@0201840000184000.X+1
  4315 2B8D B5 16			lda :STACKORIGIN,x
  4316 2B8F 8D A4 3E			sta MATH.MIN.@0201840000184000.Y
  4317 2B92 B5 26			lda :STACKORIGIN+STACKWIDTH,x
  4318 2B94 8D A5 3E			sta MATH.MIN.@0201840000184000.Y+1
  4319 2B97 CA				dex
  4320 2B98 20 F2 19			jsr MATH.MIN.@0201840000184000
  4321 2B9B AD A6 3E			lda MATH.MIN.@0201840000184000.RESULT
  4322 2B9E 8D ED 9B			sta CURSORY
  4323
  4324 				; optimize OK (/Users/manuelvio/sviluppo/PETSCII-Boy-3000/pascal/PetsciiBoy3000.pas), line = 151
  4325
  4326 2BA1 AD EC 9B			lda CURSORX
  4327 2BA4 18 69 01			add #$01
  4328 2BA7 85 1F			sta :STACKORIGIN+9
  4329 2BA9 A9 00			lda #$00
  4330 2BAB 85 2F			sta :STACKORIGIN+STACKWIDTH+9
  4331 2BAD A5 1F			lda :STACKORIGIN+9
  4332 2BAF 0A				asl @
  4333 2BB0 26 2F			rol :STACKORIGIN+STACKWIDTH+9
  4334 2BB2 0A				asl @
  4335 2BB3 0A				asl @
  4336 2BB4 18 69 18			add #$18
  4337 2BB7 8D 02 D0			sta C64.SPRITE1X
  4338
  4339 				; optimize OK (/Users/manuelvio/sviluppo/PETSCII-Boy-3000/pascal/PetsciiBoy3000.pas), line = 152
  4340
  4341 2BBA AD ED 9B			lda CURSORY
  4342 2BBD 18 69 01			add #$01
  4343 2BC0 85 1F			sta :STACKORIGIN+9
  4344 2BC2 A9 00			lda #$00
  4345 2BC4 85 2F			sta :STACKORIGIN+STACKWIDTH+9
  4346 2BC6 A5 1F			lda :STACKORIGIN+9
  4347 2BC8 0A				asl @
  4348 2BC9 26 2F			rol :STACKORIGIN+STACKWIDTH+9
  4349 2BCB 0A				asl @
  4350 2BCC 0A				asl @
  4351 2BCD 18 69 32			add #$32
  4352 2BD0 8D 03 D0			sta C64.SPRITE1Y
  4353
  4354 				; ------------------------------------------------------------
  4355
  4356 = 9BFC			X	= DATAORIGIN+$5E1B
  4357 = 9BFD			Y	= DATAORIGIN+$5E1C
  4358
  4359 = 9BFC			@VarData	= X
  4360 = 0002			@VarDataSize	= 2
  4361
  4362 2BD3			@exit
  4363 					.ifdef @new
  4364 					lda <@VarData
  4365 					sta :ztmp
  4366 					lda >@VarData
  4367 					ldy #@VarDataSize-1
  4368 					jmp @FreeMem
  4369 					els
  4370 2BD3 60				rts						; ret
  4371 					eif
  4372 				.endl
  4373
  4374 2BD4			.local	TOGGLEPIXEL					; PROCEDURE
  4375 2BD4 8D FE 9B			sta PRESSED
  4376
  4377 				; optimize OK (/Users/manuelvio/sviluppo/PETSCII-Boy-3000/pascal/PetsciiBoy3000.pas), line = 165
  4378
  4379 2BD7 F0 74			jeq l_0B7C
  4380
  4381 				; optimize OK (/Users/manuelvio/sviluppo/PETSCII-Boy-3000/pascal/PetsciiBoy3000.pas), line = 167
  4382
  4383 2BD9 AD ED 9B			lda CURSORY
  4384 2BDC 18 69 01			add #$01
  4385 2BDF 85 06			sta :eax
  4386 2BE1 A9 00			lda #$00
  4387 2BE3 69 00			adc #$00
  4388 2BE5 85 07			sta :eax+1
  4389 2BE7 A9 28			lda #$28
  4390 2BE9 85 0E			sta :ecx
  4391 2BEB A9 00			lda #$00
  4392 2BED 85 0F			sta :ecx+1
  4393 					.ifdef fmulinit
  4394 					fmulu_16
  4395 					els
  4396 2BEF 20 14 0D			imulCX
  4397 					eif
  4398 2BF2 A5 06			lda :eax
  4399 2BF4 18 6D EC 9B			add CURSORX
  4400 2BF8 85 1F			sta :STACKORIGIN+9
  4401 2BFA A5 07			lda :eax+1
  4402 2BFC 69 00			adc #$00
  4403 2BFE 85 2F			sta :STACKORIGIN+STACKWIDTH+9
  4404 2C00 A5 1F			lda :STACKORIGIN+9
  4405 2C02 18 69 01			add #$01
  4406 2C05 85 1F			sta :STACKORIGIN+9
  4407 2C07 A5 2F			lda :STACKORIGIN+STACKWIDTH+9
  4408 2C09 69 00			adc #$00
  4409 2C0B 85 2F			sta :STACKORIGIN+STACKWIDTH+9
  4410 2C0D AD 1B 3D			lda SCREENRAM
  4411 2C10 18 65 1F			add :STACKORIGIN+9
  4412 2C13 8D FF 9B			sta PIXELCHAR
  4413 2C16 AD 1C 3D			lda SCREENRAM+1
  4414 2C19 65 2F			adc :STACKORIGIN+STACKWIDTH+9
  4415 2C1B 8D 00 9C			sta PIXELCHAR+1
  4416
  4417 				; optimize OK (/Users/manuelvio/sviluppo/PETSCII-Boy-3000/pascal/PetsciiBoy3000.pas), line = 168
  4418
  4419 2C1E AC 00 9C 84 03		mvy PIXELCHAR+1 :bp+1
  4420 2C23 AC FF 9B			ldy PIXELCHAR
  4421 2C26 B1 02			lda (:bp),y
  4422 2C28 C9 20			cmp #$20
  4423 2C2A D0 11			jne l_0BA7
  4424
  4425 				; optimize OK (/Users/manuelvio/sviluppo/PETSCII-Boy-3000/pascal/PetsciiBoy3000.pas), line = 169
  4426
  4427 2C2C AC FF 9B 84 04 AC + 	mwy PIXELCHAR :bp2
  4428 2C36 A0 00			ldy #$00
  4429 2C38 A9 2A			lda #$2A
  4430 2C3A 4C 4B 2C			jmp l_0BB5
  4431 2C3D			l_0BA7
  4432
  4433 				; optimize OK (/Users/manuelvio/sviluppo/PETSCII-Boy-3000/pascal/PetsciiBoy3000.pas), line = 171
  4434
  4435 2C3D AC FF 9B 84 04 AC + 	mwy PIXELCHAR :bp2
  4436 2C47 A0 00			ldy #$00
  4437 2C49 A9 20			lda #$20
  4438 2C4B			l_0BB5
  4439 2C4B 91 04			sta (:bp2),y
  4440 2C4D			l_0B7C
  4441
  4442 				; ------------------------------------------------------------
  4443
  4444 = 9BFE			PRESSED	= DATAORIGIN+$5E1D
  4445 = 9BFF			PIXELCHAR	= DATAORIGIN+$5E1E
  4446
  4447 = 9BFE			@VarData	= PRESSED
  4448 = 0003			@VarDataSize	= 3
  4449
  4450 2C4D			@exit
  4451 					.ifdef @new
  4452 					lda <@VarData
  4453 					sta :ztmp
  4454 					lda >@VarData
  4455 					ldy #@VarDataSize-1
  4456 					jmp @FreeMem
  4457 					els
  4458 2C4D 60				rts						; ret
  4459 					eif
  4460 				.endl
  4461
  4462 2C4E			.local	ENABLECURSOR					; PROCEDURE
  4463
  4464 				; optimize OK (/Users/manuelvio/sviluppo/PETSCII-Boy-3000/pascal/PetsciiBoy3000.pas), line = 181
  4465
  4466 2C4E AD 15 D0			lda C64.ENABLESPRITES
  4467 2C51 09 02			ora #$02
  4468 2C53 8D 15 D0			sta C64.ENABLESPRITES
  4469
  4470 				; optimize OK (/Users/manuelvio/sviluppo/PETSCII-Boy-3000/pascal/PetsciiBoy3000.pas), line = 182
  4471
  4472 2C56 A9 00			lda #$00
  4473 2C58 8D FC 9B			sta MOVECURSOR.X
  4474 2C5B 8D FD 9B			sta MOVECURSOR.Y
  4475 2C5E 20 FD 2A			jsr MOVECURSOR
  4476
  4477 2C61			@exit
  4478 					.ifdef @new
  4479 					lda <@VarData
  4480 					sta :ztmp
  4481 					lda >@VarData
  4482 					ldy #@VarDataSize-1
  4483 					jmp @FreeMem
  4484 					els
  4485 2C61 60				rts						; ret
  4486 					eif
  4487 				.endl
  4488
  4489 2C62			.local	DISABLECURSOR					; PROCEDURE
  4490
  4491 				; optimize OK (/Users/manuelvio/sviluppo/PETSCII-Boy-3000/pascal/PetsciiBoy3000.pas), line = 191
  4492
  4493 2C62 AD 15 D0			lda C64.ENABLESPRITES
  4494 2C65 29 FD			and #$FD
  4495 2C67 8D 15 D0			sta C64.ENABLESPRITES
  4496
  4497 2C6A			@exit
  4498 					.ifdef @new
  4499 					lda <@VarData
  4500 					sta :ztmp
  4501 					lda >@VarData
  4502 					ldy #@VarDataSize-1
  4503 					jmp @FreeMem
  4504 					els
  4505 2C6A 60				rts						; ret
  4506 					eif
  4507 				.endl
  4508
  4509 2C6B			.local	LOG						; PROCEDURE | OVERLOAD
  4510 2C6B			.local	@0101898600000021
  4511
  4512 				; ------------------------------------------------------------
  4513
  4514 				; Generate Assignment for WORD / SMALLINT / SHORTREAL / POINTER
  4515 				; as Pointer
  4516 2C6B B5 16			lda :STACKORIGIN,x
  4517 2C6D 85 04			sta :bp2
  4518 2C6F B5 26			lda :STACKORIGIN+STACKWIDTH,x
  4519 2C71 85 05			sta :bp2+1
  4520 2C73 A0 20			ldy #$20
  4521 2C75 B1 04 99 01 9C 88 + 	mva:rpl (:bp2),y adr.ENTRY,y-
  4522 2C7D CA				dex
  4523 2C7E			@main
  4524
  4525 				; optimize FAIL ('CRT.WHEREX', /Users/manuelvio/sviluppo/PETSCII-Boy-3000/pascal/PetsciiBoy3000.pas), line = 204
  4526
  4527 2C7E 20 2C 19			jsr CRT.WHEREX
  4528 2C81 AD 36 3E			lda CRT.WHEREX.RESULT
  4529 2C84 8D 22 9C			sta CURRX
  4530
  4531 				; optimize FAIL ('CRT.WHEREY', /Users/manuelvio/sviluppo/PETSCII-Boy-3000/pascal/PetsciiBoy3000.pas), line = 205
  4532
  4533 2C87 20 39 19			jsr CRT.WHEREY
  4534 2C8A AD 37 3E			lda CRT.WHEREY.RESULT
  4535 2C8D 8D 23 9C			sta CURRY
  4536
  4537 				; optimize OK (/Users/manuelvio/sviluppo/PETSCII-Boy-3000/pascal/PetsciiBoy3000.pas), line = 206
  4538
  4539 2C90 A0 1F			ldy #$1F
  4540 2C92 B9 21 07 99 F9 06 + 	mva:rpl $0721,y $06F9,y-
  4541
  4542 				; optimize OK (/Users/manuelvio/sviluppo/PETSCII-Boy-3000/pascal/PetsciiBoy3000.pas), line = 207
  4543
  4544 2C9B A0 1F			ldy #$1F
  4545 2C9D B9 49 07 99 21 07 + 	mva:rpl $0749,y $0721,y-
  4546
  4547 				; optimize OK (/Users/manuelvio/sviluppo/PETSCII-Boy-3000/pascal/PetsciiBoy3000.pas), line = 208
  4548
  4549 2CA6 A0 1F			ldy #$1F
  4550 2CA8 B9 71 07 99 49 07 + 	mva:rpl $0771,y $0749,y-
  4551
  4552 				; optimize OK (/Users/manuelvio/sviluppo/PETSCII-Boy-3000/pascal/PetsciiBoy3000.pas), line = 209
  4553
  4554 2CB1 A9 02			lda #$02
  4555 2CB3 8D 34 3E			sta CRT.GOTOXY.X
  4556 2CB6 A9 17			lda #$17
  4557 2CB8 8D 35 3E			sta CRT.GOTOXY.Y
  4558 2CBB 20 17 19			jsr CRT.GOTOXY
  4559
  4560 				; optimize OK (/Users/manuelvio/sviluppo/PETSCII-Boy-3000/pascal/PetsciiBoy3000.pas), line = 210
  4561
  4562 2CBE A9 20			lda #$20
  4563 2CC0 38 ED 01 9C			sub adr.ENTRY
  4564 2CC4 20 41 18			jsr SYSTEM.SPACE
  4565 2CC7 E8				inx
  4566 2CC8 AC 2A 3E 84 04 AC + 	mwy SYSTEM.SPACE.RESULT :bp2
  4567 2CD2 A0 00			ldy #$00
  4568 2CD4 B1 04 99 AE 3F C8 + 	mva:rne (:bp2),y STRINGUTILS.STRCAT.@020189860000010001898600000100.adr.S2,y+
  4569 2CDC E8				inx
  4570 2CDD AC 0D 2D 84 04 AC + 	mwy ENTRY :bp2
  4571 2CE7 A0 00			ldy #$00
  4572 2CE9 B1 04 99 AE 3E C8 + 	mva:rne (:bp2),y STRINGUTILS.STRCAT.@020189860000010001898600000100.adr.S1,y+
  4573 2CF1 20 48 1A			jsr STRINGUTILS.STRCAT.@020189860000010001898600000100
  4574 					@printSTRING STRINGUTILS.STRCAT.@020189860000010001898600000100.RESULT
  4574 				 LDY STRINGUTILS.STRCAT.@020189860000010001898600000100.RESULT+1\ LDA STRINGUTILS.STRCAT.@020189860000010001898600000100.RESULT\ JSR @PRINTSTRING
  4574 2CF4 AC D6 1A		 LDY STRINGUTILS.STRCAT.@020189860000010001898600000100.RESULT+1
  4574 2CF7 AD D5 1A		 LDA STRINGUTILS.STRCAT.@020189860000010001898600000100.RESULT
  4574 2CFA 20 14 14		 JSR @PRINTSTRING
  4575
  4576 				; optimize OK (/Users/manuelvio/sviluppo/PETSCII-Boy-3000/pascal/PetsciiBoy3000.pas), line = 211
  4577
  4578 2CFD AD 22 9C			lda CURRX
  4579 2D00 8D 34 3E			sta CRT.GOTOXY.X
  4580 2D03 AD 23 9C			lda CURRY
  4581 2D06 8D 35 3E			sta CRT.GOTOXY.Y
  4582 2D09 20 17 19			jsr CRT.GOTOXY
  4583
  4584 				; ------------------------------------------------------------
  4585
  4586 = 9C01			adr.ENTRY	= [DATAORIGIN+$5E20] .array [33]
  4587 2D0C			.var ENTRY	= adr.ENTRY .word
  4588 = 9C22			CURRX	= DATAORIGIN+$5E41
  4589 = 9C23			CURRY	= DATAORIGIN+$5E42
  4590
  4591 = 2D0D			@VarData	= ENTRY
  4592 = 0023			@VarDataSize	= 35
  4593
  4594 2D0C			@exit
  4595 					.ifdef @new
  4596 					lda <@VarData
  4597 					sta :ztmp
  4598 					lda >@VarData
  4599 					ldy #@VarDataSize-1
  4600 					jmp @FreeMem
  4601 					els
  4602 2D0C 60				rts						; ret
  4603 					eif
  4604 = 2D0D 01 9C		ENTRY
  4604 				.endl
  4605 				.endl							; overload
  4606
  4607 2D0F			.local	LOG						; PROCEDURE | OVERLOAD
  4608 2D0F			.local	@02018986000000210180000
  4609
  4610 				; ------------------------------------------------------------
  4611
  4612 				; Generate Assignment for BYTE / CHAR / SHORTINT / BOOLEAN
  4613 				; as Pointer
  4614 2D0F B5 16			lda :STACKORIGIN,x
  4615 2D11 8D 24 9C			sta COLOR
  4616 2D14 CA				dex
  4617 2D15 30 01			jmi @main
  4618 2D17 CA				dex
  4619 2D18			@main
  4620
  4621 				; optimize OK (/Users/manuelvio/sviluppo/PETSCII-Boy-3000/pascal/PetsciiBoy3000.pas), line = 225
  4622
  4623 2D18 AD 86 02			lda CURRENTCOLOR
  4624 2D1B 8D 46 9C			sta BAKCOLOR
  4625
  4626 				; optimize OK (/Users/manuelvio/sviluppo/PETSCII-Boy-3000/pascal/PetsciiBoy3000.pas), line = 226
  4627
  4628 2D1E AD 24 9C			lda COLOR
  4629 2D21 8D 86 02			sta CURRENTCOLOR
  4630
  4631 				; optimize FAIL ('LOG.@0101898600000021', /Users/manuelvio/sviluppo/PETSCII-Boy-3000/pascal/PetsciiBoy3000.pas), line = 227
  4632
  4633 2D24 E8				inx
  4634 2D25 AD 39 2D 95 16		mva ENTRY :STACKORIGIN,x
  4635 2D2A AD 3A 2D 95 26		mva ENTRY+1 :STACKORIGIN+STACKWIDTH,x
  4636 2D2F 20 6B 2C			jsr LOG.@0101898600000021
  4637
  4638 				; optimize OK (/Users/manuelvio/sviluppo/PETSCII-Boy-3000/pascal/PetsciiBoy3000.pas), line = 228
  4639
  4640 2D32 AD 46 9C			lda BAKCOLOR
  4641 2D35 8D 86 02			sta CURRENTCOLOR
  4642
  4643 				; ------------------------------------------------------------
  4644
  4645 = 9C24			COLOR	= DATAORIGIN+$5E43
  4646 = 9C25			adr.ENTRY	= [DATAORIGIN+$5E44] .array [33]
  4647 2D38			.var ENTRY	= adr.ENTRY .word
  4648 = 9C46			BAKCOLOR	= DATAORIGIN+$5E65
  4649
  4650 = 9C24			@VarData	= COLOR
  4651 = 0023			@VarDataSize	= 35
  4652
  4653 2D38			@exit
  4654 					.ifdef @new
  4655 					lda <@VarData
  4656 					sta :ztmp
  4657 					lda >@VarData
  4658 					ldy #@VarDataSize-1
  4659 					jmp @FreeMem
  4660 					els
  4661 2D38 60				rts						; ret
  4662 					eif
  4663 = 2D39 25 9C		ENTRY
  4663 				.endl
  4664 				.endl							; overload
  4665
  4666 2D3B			.local	CONFIRM						; FUNCTION
  4667
  4668 				; ------------------------------------------------------------
  4669
  4670 				; Generate Assignment for WORD / SMALLINT / SHORTREAL / POINTER
  4671 				; as Pointer
  4672 2D3B B5 16			lda :STACKORIGIN,x
  4673 2D3D 85 04			sta :bp2
  4674 2D3F B5 26			lda :STACKORIGIN+STACKWIDTH,x
  4675 2D41 85 05			sta :bp2+1
  4676 2D43 A0 20			ldy #$20
  4677 2D45 B1 04 99 47 9C 88 + 	mva:rpl (:bp2),y adr.MSG,y-
  4678 2D4D CA				dex
  4679 2D4E			@main
  4680
  4681 				; optimize OK (/Users/manuelvio/sviluppo/PETSCII-Boy-3000/pascal/PetsciiBoy3000.pas), line = 241
  4682
  4683 2D4E A9 00			lda #$00
  4684 2D50 85 C6			sta KEYBOARDBUFFERLENGTH
  4685
  4686 				; optimize FAIL ('LOG.@02018986000000210180000', /Users/manuelvio/sviluppo/PETSCII-Boy-3000/pascal/PetsciiBoy3000.pas), line = 242
  4687
  4688 2D52 E8				inx
  4689 2D53 AC 89 2D 84 04 AC + 	mwy MSG :bp2
  4690 2D5D A0 20			ldy #$20
  4691 2D5F B1 04 99 25 9C 88 + 	mva:rpl (:bp2),y LOG.@02018986000000210180000.adr.ENTRY,y-
  4692 2D67 E8				inx
  4693 2D68 A9 0D 95 16			mva #$0D :STACKORIGIN,x
  4694 2D6C 20 0F 2D			jsr LOG.@02018986000000210180000
  4695
  4696 				; --- RepeatUntilProlog
  4697 2D6F			l_0C33
  4698
  4699 				; optimize FAIL ('CRT.KEYPRESSED', /Users/manuelvio/sviluppo/PETSCII-Boy-3000/pascal/PetsciiBoy3000.pas), line = 243
  4700
  4701 2D6F 20 06 19			jsr CRT.KEYPRESSED
  4702 2D72 AD 33 3E			lda CRT.KEYPRESSED.RESULT
  4703 2D75 F0 F8			jeq l_0C33
  4704
  4705 				; optimize FAIL ('CRT.READKEY', /Users/manuelvio/sviluppo/PETSCII-Boy-3000/pascal/PetsciiBoy3000.pas), line = 244
  4706
  4707 2D77 20 F8 18			jsr CRT.READKEY
  4708 2D7A A0 01			ldy #1
  4709 2D7C AD 32 3E			lda CRT.READKEY.RESULT
  4710 2D7F C9 79			cmp #$79
  4711 2D81 F0 01			beq @+
  4712 2D83 88				dey
  4713 				@
  4714 2D84 98				tya
  4715 2D85 8D 68 9C			sta RESULT
  4716 2D88			@exit
  4717
  4718 				; ------------------------------------------------------------
  4719
  4720 = 9C47			adr.MSG	= [DATAORIGIN+$5E66] .array [33]
  4721 2D88			.var MSG	= adr.MSG .word
  4722 = 9C68			RESULT	= DATAORIGIN+$5E87
  4723
  4724 = 2D89			@VarData	= MSG
  4725 = 0021			@VarDataSize	= 33
  4726
  4727 2D88 60				rts						; ret
  4728 = 2D89 47 9C		MSG
  4728 				.endl
  4729
  4730 2D8B			.local	LOADBACKGROUND					; PROCEDURE
  4731 2D8B CA				dex
  4732 2D8C 30 06			jmi @main
  4733
  4734 				; ------------------------------------------------------------
  4735
  4736 				; Generate Assignment for BYTE / CHAR / SHORTINT / BOOLEAN
  4737 				; as Pointer
  4738 2D8E B5 16			lda :STACKORIGIN,x
  4739 2D90 8D 7A 9C			sta DEVICE
  4740 2D93 CA				dex
  4741 2D94			@main
  4742
  4743 				; optimize FAIL ('KERNAL.KERNALSETNAM.@0101898600000011', /Users/manuelvio/sviluppo/PETSCII-Boy-3000/pascal/PetsciiBoy3000.pas), line = 256
  4744
  4745 2D94 E8				inx
  4746 2D95 AD E3 2D 95 16		mva FILENAME :STACKORIGIN,x
  4747 2D9A AD E4 2D 95 26		mva FILENAME+1 :STACKORIGIN+STACKWIDTH,x
  4748 2D9F 20 D9 1A			jsr KERNAL.KERNALSETNAM.@0101898600000011
  4749
  4750 				; optimize OK (/Users/manuelvio/sviluppo/PETSCII-Boy-3000/pascal/PetsciiBoy3000.pas), line = 257
  4751
  4752 2DA2 A9 01			lda #$01
  4753 2DA4 8D C4 42			sta KERNAL.KERNALSETLFS.FD
  4754 2DA7 AD 7A 9C			lda DEVICE
  4755 2DAA 8D C5 42			sta KERNAL.KERNALSETLFS.DEVICE
  4756 2DAD A9 09			lda #$09
  4757 2DAF 8D C6 42			sta KERNAL.KERNALSETLFS.SECONDARY
  4758 2DB2 20 0D 1B			jsr KERNAL.KERNALSETLFS
  4759
  4760 				; optimize FAIL ('KERNAL.KERNALOPEN', /Users/manuelvio/sviluppo/PETSCII-Boy-3000/pascal/PetsciiBoy3000.pas), line = 258
  4761
  4762 2DB5 20 2E 1B			jsr KERNAL.KERNALOPEN
  4763 2DB8 AD C8 42			lda KERNAL.KERNALOPEN.RESULT
  4764 2DBB F0 1D			jeq l_0C5C
  4765
  4766 				; optimize OK (/Users/manuelvio/sviluppo/PETSCII-Boy-3000/pascal/PetsciiBoy3000.pas), line = 260
  4767
  4768 2DBD A9 01			lda #$01
  4769 2DBF 20 46 1B			jsr KERNAL.KERNALCHKIN
  4770
  4771 				; --- WhileProlog
  4772 2DC2 4C D2 2D			jmp l_0C61
  4773 2DC5			l_0C62
  4774
  4775 				; optimize FAIL ('KERNAL.KERNALCHRIN', /Users/manuelvio/sviluppo/PETSCII-Boy-3000/pascal/PetsciiBoy3000.pas), line = 262
  4776
  4777 2DC5 20 6D 1B			jsr KERNAL.KERNALCHRIN
  4778 2DC8 E8				inx
  4779 2DC9 AD CC 42 95 16		mva KERNAL.KERNALCHRIN.RESULT :STACKORIGIN,x
  4780 2DCE 20 06 14			@printCHAR
  4781 2DD1 CA				dex
  4782 2DD2			l_0C61
  4783
  4784 				; optimize FAIL ('KERNAL.KERNALREADST', /Users/manuelvio/sviluppo/PETSCII-Boy-3000/pascal/PetsciiBoy3000.pas), line = 261
  4785
  4786 2DD2 20 62 1B			jsr KERNAL.KERNALREADST
  4787 2DD5 AD CB 42			lda KERNAL.KERNALREADST.RESULT
  4788 2DD8 F0 EB			jeq l_0C62
  4789 2DDA			l_0C5C
  4790
  4791 				; optimize OK (/Users/manuelvio/sviluppo/PETSCII-Boy-3000/pascal/PetsciiBoy3000.pas), line = 264
  4792
  4793 2DDA A9 01			lda #$01
  4794 2DDC 20 86 1B			jsr KERNAL.KERNALCLOSE
  4795
  4796 				; optimize FAIL ('KERNAL.KERNALCLRCHN', /Users/manuelvio/sviluppo/PETSCII-Boy-3000/pascal/PetsciiBoy3000.pas), line = 265
  4797
  4798 2DDF 20 A4 1B			jsr KERNAL.KERNALCLRCHN
  4799
  4800 				; ------------------------------------------------------------
  4801
  4802 = 9C69			adr.FILENAME	= [DATAORIGIN+$5E88] .array [17]
  4803 2DE2			.var FILENAME	= adr.FILENAME .word
  4804 = 9C7A			DEVICE	= DATAORIGIN+$5E99
  4805
  4806 = 2DE3			@VarData	= FILENAME
  4807 = 0012			@VarDataSize	= 18
  4808
  4809 2DE2			@exit
  4810 					.ifdef @new
  4811 					lda <@VarData
  4812 					sta :ztmp
  4813 					lda >@VarData
  4814 					ldy #@VarDataSize-1
  4815 					jmp @FreeMem
  4816 					els
  4817 2DE2 60				rts						; ret
  4818 					eif
  4819 = 2DE3 69 9C		FILENAME
  4819 				.endl
  4820
  4821 2DE5			.local	LOADTRAININGBATCH				; PROCEDURE
  4822 2DE5 CA				dex
  4823 2DE6 30 13			jmi @main
  4824
  4825 				; ------------------------------------------------------------
  4826
  4827 				; Generate Assignment for BYTE / CHAR / SHORTINT / BOOLEAN
  4828 				; as Pointer
  4829 2DE8 B5 16			lda :STACKORIGIN,x
  4830 2DEA 8D 8C 9C			sta DEVICE
  4831 2DED CA				dex
  4832 2DEE 30 0B			jmi @main
  4833
  4834 				; ------------------------------------------------------------
  4835
  4836 				; Generate Assignment for WORD / SMALLINT / SHORTREAL / POINTER
  4837 				; as Pointer
  4838 2DF0 B5 16			lda :STACKORIGIN,x
  4839 2DF2 8D 8D 9C			sta DESTADDRESS
  4840 2DF5 B5 26			lda :STACKORIGIN+STACKWIDTH,x
  4841 2DF7 8D 8E 9C			sta DESTADDRESS+1
  4842 2DFA CA				dex
  4843 2DFB			@main
  4844
  4845 				; optimize OK (/Users/manuelvio/sviluppo/PETSCII-Boy-3000/pascal/PetsciiBoy3000.pas), line = 281
  4846
  4847 2DFB A9 00			lda #$00
  4848 2DFD 8D 8F 9C			sta I
  4849
  4850 				; optimize OK (/Users/manuelvio/sviluppo/PETSCII-Boy-3000/pascal/PetsciiBoy3000.pas), line = 282
  4851
  4852 2E00 8D 56 7E			sta NEURALNET.BATCHLENGTH
  4853
  4854 				; optimize FAIL ('KERNAL.KERNALSETNAM.@0101898600000011', /Users/manuelvio/sviluppo/PETSCII-Boy-3000/pascal/PetsciiBoy3000.pas), line = 283
  4855
  4856 2E03 E8				inx
  4857 2E04 AD AC 2E 95 16		mva FILENAME :STACKORIGIN,x
  4858 2E09 AD AD 2E 95 26		mva FILENAME+1 :STACKORIGIN+STACKWIDTH,x
  4859 2E0E 20 D9 1A			jsr KERNAL.KERNALSETNAM.@0101898600000011
  4860
  4861 				; optimize OK (/Users/manuelvio/sviluppo/PETSCII-Boy-3000/pascal/PetsciiBoy3000.pas), line = 284
  4862
  4863 2E11 A9 01			lda #$01
  4864 2E13 8D C4 42			sta KERNAL.KERNALSETLFS.FD
  4865 2E16 AD 8C 9C			lda DEVICE
  4866 2E19 8D C5 42			sta KERNAL.KERNALSETLFS.DEVICE
  4867 2E1C A9 09			lda #$09
  4868 2E1E 8D C6 42			sta KERNAL.KERNALSETLFS.SECONDARY
  4869 2E21 20 0D 1B			jsr KERNAL.KERNALSETLFS
  4870
  4871 				; optimize FAIL ('KERNAL.KERNALOPEN', /Users/manuelvio/sviluppo/PETSCII-Boy-3000/pascal/PetsciiBoy3000.pas), line = 285
  4872
  4873 2E24 20 2E 1B			jsr KERNAL.KERNALOPEN
  4874 2E27 AD C8 42			lda KERNAL.KERNALOPEN.RESULT
  4875 2E2A F0 77			jeq l_0C97
  4876
  4877 				; optimize OK (/Users/manuelvio/sviluppo/PETSCII-Boy-3000/pascal/PetsciiBoy3000.pas), line = 287
  4878
  4879 2E2C A9 01			lda #$01
  4880 2E2E 20 46 1B			jsr KERNAL.KERNALCHKIN
  4881
  4882 				; optimize OK (/Users/manuelvio/sviluppo/PETSCII-Boy-3000/pascal/PetsciiBoy3000.pas), line = 288
  4883
  4884 2E31 A9 00			lda #$00
  4885 2E33 8D 90 9C			sta J
  4886
  4887 2E36			l_0CA3
  4888 				; --- ForToDoCondition
  4889 2E36 AD 90 9C			lda J
  4890 2E39 C9 64			cmp #$64
  4891 2E3B B0 66			jcs l_0CB1
  4892
  4893 				; optimize FAIL ('KERNAL.KERNALREADST', /Users/manuelvio/sviluppo/PETSCII-Boy-3000/pascal/PetsciiBoy3000.pas), line = 290
  4894
  4895 2E3D 20 62 1B			jsr KERNAL.KERNALREADST
  4896 2E40 AD CB 42			lda KERNAL.KERNALREADST.RESULT
  4897 2E43 F0 03			jeq l_0CC1
  4898 2E45 4C A3 2E			jmp b_0CA3
  4899 2E48			l_0CC1
  4900
  4901 				; optimize OK (/Users/manuelvio/sviluppo/PETSCII-Boy-3000/pascal/PetsciiBoy3000.pas), line = 293
  4902
  4903 2E48 A9 00			lda #$00
  4904 2E4A 8D 8F 9C			sta I
  4905
  4906 2E4D			l_0CCD
  4907 				; --- ForToDoCondition
  4908 2E4D AD 8F 9C			lda I
  4909 2E50 C9 21			cmp #$21
  4910 2E52 B0 47			jcs l_0CDB
  4911
  4912 				; optimize FAIL (1, /Users/manuelvio/sviluppo/PETSCII-Boy-3000/pascal/PetsciiBoy3000.pas), line = 294
  4913
  4914 2E54 E8				inx
  4915 2E55 AD 8F 9C 95 16		mva I :STACKORIGIN,x
  4916 2E5A A9 00 95 26			mva #$00 :STACKORIGIN+STACKWIDTH,x
  4917 2E5E E8				inx
  4918 2E5F A9 64 95 16			mva #$64 :STACKORIGIN,x
  4919 2E63 A9 00 95 26			mva #$00 :STACKORIGIN+STACKWIDTH,x
  4920 2E67 20 01 0D			jsr imulWORD
  4921 2E6A CA				dex
  4922 2E6B A5 06			lda :eax
  4923 2E6D 18 6D 90 9C			add J
  4924 2E71 95 16			sta :STACKORIGIN,x
  4925 2E73 A5 07			lda :eax+1
  4926 2E75 69 00			adc #$00
  4927 2E77 95 26			sta :STACKORIGIN+STACKWIDTH,x
  4928 2E79 20 6D 1B			jsr KERNAL.KERNALCHRIN
  4929 2E7C E8				inx
  4930 2E7D AD CC 42 95 16		mva KERNAL.KERNALCHRIN.RESULT :STACKORIGIN,x
  4931 2E82 AD 8D 9C			lda DESTADDRESS
  4932 2E85 18 75 15			add :STACKORIGIN-1,x
  4933 2E88 A8				tay
  4934 2E89 AD 8E 9C			lda DESTADDRESS+1
  4935 2E8C 75 25			adc :STACKORIGIN-1+STACKWIDTH,x
  4936 2E8E 85 03			sta :bp+1
  4937 2E90 B5 16			lda :STACKORIGIN,x
  4938 2E92 91 02			sta (:bp),y
  4939 2E94 CA				dex
  4940 2E95 CA				dex
  4941
  4942 				; --- ForToDoEpilog
  4943 2E96 EE 8F 9C			inc I
  4944 2E99 D0 B2			jne l_0CCD
  4945 2E9B			l_0CDB
  4946
  4947 				; optimize FAIL (0, /Users/manuelvio/sviluppo/PETSCII-Boy-3000/pascal/PetsciiBoy3000.pas), line = 295
  4948
  4949 2E9B EE 56 7E			inc NEURALNET.BATCHLENGTH
  4950
  4951 				; --- ForToDoEpilog
  4952 2E9E EE 90 9C			inc J
  4953 2EA1 D0 93			jne l_0CA3
  4954 2EA3			l_0CB1
  4955 2EA3			b_0CA3
  4956 2EA3			l_0C97
  4957
  4958 				; optimize OK (/Users/manuelvio/sviluppo/PETSCII-Boy-3000/pascal/PetsciiBoy3000.pas), line = 298
  4959
  4960 2EA3 A9 01			lda #$01
  4961 2EA5 20 86 1B			jsr KERNAL.KERNALCLOSE
  4962
  4963 				; optimize FAIL ('KERNAL.KERNALCLRCHN', /Users/manuelvio/sviluppo/PETSCII-Boy-3000/pascal/PetsciiBoy3000.pas), line = 299
  4964
  4965 2EA8 20 A4 1B			jsr KERNAL.KERNALCLRCHN
  4966
  4967 				; ------------------------------------------------------------
  4968
  4969 = 9C7B			adr.FILENAME	= [DATAORIGIN+$5E9A] .array [17]
  4970 2EAB			.var FILENAME	= adr.FILENAME .word
  4971 = 9C8C			DEVICE	= DATAORIGIN+$5EAB
  4972 = 9C8D			DESTADDRESS	= DATAORIGIN+$5EAC
  4973 = 9C8F			I	= DATAORIGIN+$5EAE
  4974 = 9C90			J	= DATAORIGIN+$5EAF
  4975
  4976 = 2EAC			@VarData	= FILENAME
  4977 = 0016			@VarDataSize	= 22
  4978
  4979 2EAB			@exit
  4980 					.ifdef @new
  4981 					lda <@VarData
  4982 					sta :ztmp
  4983 					lda >@VarData
  4984 					ldy #@VarDataSize-1
  4985 					jmp @FreeMem
  4986 					els
  4987 2EAB 60				rts						; ret
  4988 					eif
  4989 = 2EAC 7B 9C		FILENAME
  4989 				.endl
  4990
  4991 2EAE			.local	SAVENETWORKPARAMETERS				; PROCEDURE
  4992 2EAE 8D 91 9C			sta DEVICE
  4993
  4994 				; optimize FAIL ('KERNAL.SAVEBYTES', /Users/manuelvio/sviluppo/PETSCII-Boy-3000/pascal/PetsciiBoy3000.pas), line = 310
  4995
  4996 2EB1 E8				inx
  4997 2EB2 A9 00 95 16			mva #$00 :STACKORIGIN,x
  4998 2EB6 A9 38 95 26			mva #$38 :STACKORIGIN+STACKWIDTH,x
  4999 2EBA E8				inx
  5000 2EBB AD 78 29 95 16		mva NEURALNET.WEIGHTSHIDDEN :STACKORIGIN,x
  5001 2EC0 AD 79 29 95 26		mva NEURALNET.WEIGHTSHIDDEN+1 :STACKORIGIN+STACKWIDTH,x
  5002 2EC5 E8				inx
  5003 2EC6 AD 91 9C 95 16		mva DEVICE :STACKORIGIN,x
  5004 2ECB E8				inx
  5005 2ECC A0 10			ldy #$10
  5006 2ECE B9 BC 09 99 D1 42 + 	mva:rpl $09BC,y KERNAL.SAVEBYTES.adr.FILENAME,y-
  5007 2ED7 20 AC 1B			jsr KERNAL.SAVEBYTES
  5008
  5009 				; optimize FAIL ('KERNAL.SAVEBYTES', /Users/manuelvio/sviluppo/PETSCII-Boy-3000/pascal/PetsciiBoy3000.pas), line = 311
  5010
  5011 2EDA E8				inx
  5012 2EDB A9 30 95 16			mva #$30 :STACKORIGIN,x
  5013 2EDF A9 02 95 26			mva #$02 :STACKORIGIN+STACKWIDTH,x
  5014 2EE3 E8				inx
  5015 2EE4 AD 7E 29 95 16		mva NEURALNET.WEIGHTSOUTPUT :STACKORIGIN,x
  5016 2EE9 AD 7F 29 95 26		mva NEURALNET.WEIGHTSOUTPUT+1 :STACKORIGIN+STACKWIDTH,x
  5017 2EEE E8				inx
  5018 2EEF AD 91 9C 95 16		mva DEVICE :STACKORIGIN,x
  5019 2EF4 E8				inx
  5020 2EF5 A0 10			ldy #$10
  5021 2EF7 B9 C6 09 99 D1 42 + 	mva:rpl $09C6,y KERNAL.SAVEBYTES.adr.FILENAME,y-
  5022 2F00 20 AC 1B			jsr KERNAL.SAVEBYTES
  5023
  5024 				; optimize FAIL ('KERNAL.SAVEBYTES', /Users/manuelvio/sviluppo/PETSCII-Boy-3000/pascal/PetsciiBoy3000.pas), line = 312
  5025
  5026 2F03 E8				inx
  5027 2F04 A9 38 95 16			mva #$38 :STACKORIGIN,x
  5028 2F08 A9 00 95 26			mva #$00 :STACKORIGIN+STACKWIDTH,x
  5029 2F0C E8				inx
  5030 2F0D AD 7A 29 95 16		mva NEURALNET.BIASESHIDDEN :STACKORIGIN,x
  5031 2F12 AD 7B 29 95 26		mva NEURALNET.BIASESHIDDEN+1 :STACKORIGIN+STACKWIDTH,x
  5032 2F17 E8				inx
  5033 2F18 AD 91 9C 95 16		mva DEVICE :STACKORIGIN,x
  5034 2F1D E8				inx
  5035 2F1E A0 10			ldy #$10
  5036 2F20 B9 D0 09 99 D1 42 + 	mva:rpl $09D0,y KERNAL.SAVEBYTES.adr.FILENAME,y-
  5037 2F29 20 AC 1B			jsr KERNAL.SAVEBYTES
  5038
  5039 				; optimize FAIL ('KERNAL.SAVEBYTES', /Users/manuelvio/sviluppo/PETSCII-Boy-3000/pascal/PetsciiBoy3000.pas), line = 313
  5040
  5041 2F2C E8				inx
  5042 2F2D A9 28 95 16			mva #$28 :STACKORIGIN,x
  5043 2F31 A9 00 95 26			mva #$00 :STACKORIGIN+STACKWIDTH,x
  5044 2F35 E8				inx
  5045 2F36 AD 80 29 95 16		mva NEURALNET.BIASESOUTPUT :STACKORIGIN,x
  5046 2F3B AD 81 29 95 26		mva NEURALNET.BIASESOUTPUT+1 :STACKORIGIN+STACKWIDTH,x
  5047 2F40 E8				inx
  5048 2F41 AD 91 9C 95 16		mva DEVICE :STACKORIGIN,x
  5049 2F46 E8				inx
  5050 2F47 A0 10			ldy #$10
  5051 2F49 B9 DA 09 99 D1 42 + 	mva:rpl $09DA,y KERNAL.SAVEBYTES.adr.FILENAME,y-
  5052 2F52 20 AC 1B			jsr KERNAL.SAVEBYTES
  5053
  5054 				; ------------------------------------------------------------
  5055
  5056 = 9C91			DEVICE	= DATAORIGIN+$5EB0
  5057
  5058 = 9C91			@VarData	= DEVICE
  5059 = 0001			@VarDataSize	= 1
  5060
  5061 2F55			@exit
  5062 					.ifdef @new
  5063 					lda <@VarData
  5064 					sta :ztmp
  5065 					lda >@VarData
  5066 					ldy #@VarDataSize-1
  5067 					jmp @FreeMem
  5068 					els
  5069 2F55 60				rts						; ret
  5070 					eif
  5071 				.endl
  5072
  5073 2F56			.local	LOADNETWORKPARAMETERS				; PROCEDURE
  5074 2F56 8D 92 9C			sta DEVICE
  5075
  5076 				; optimize FAIL ('KERNAL.LOADBYTES', /Users/manuelvio/sviluppo/PETSCII-Boy-3000/pascal/PetsciiBoy3000.pas), line = 324
  5077
  5078 2F59 E8				inx
  5079 2F5A AD 78 29 95 16		mva NEURALNET.WEIGHTSHIDDEN :STACKORIGIN,x
  5080 2F5F AD 79 29 95 26		mva NEURALNET.WEIGHTSHIDDEN+1 :STACKORIGIN+STACKWIDTH,x
  5081 2F64 E8				inx
  5082 2F65 AD 92 9C 95 16		mva DEVICE :STACKORIGIN,x
  5083 2F6A E8				inx
  5084 2F6B A0 10			ldy #$10
  5085 2F6D B9 E4 09 99 EB 42 + 	mva:rpl $09E4,y KERNAL.LOADBYTES.adr.FILENAME,y-
  5086 2F76 20 61 1C			jsr KERNAL.LOADBYTES
  5087
  5088 				; optimize FAIL ('KERNAL.LOADBYTES', /Users/manuelvio/sviluppo/PETSCII-Boy-3000/pascal/PetsciiBoy3000.pas), line = 325
  5089
  5090 2F79 E8				inx
  5091 2F7A AD 7E 29 95 16		mva NEURALNET.WEIGHTSOUTPUT :STACKORIGIN,x
  5092 2F7F AD 7F 29 95 26		mva NEURALNET.WEIGHTSOUTPUT+1 :STACKORIGIN+STACKWIDTH,x
  5093 2F84 E8				inx
  5094 2F85 AD 92 9C 95 16		mva DEVICE :STACKORIGIN,x
  5095 2F8A E8				inx
  5096 2F8B A0 10			ldy #$10
  5097 2F8D B9 EB 09 99 EB 42 + 	mva:rpl $09EB,y KERNAL.LOADBYTES.adr.FILENAME,y-
  5098 2F96 20 61 1C			jsr KERNAL.LOADBYTES
  5099
  5100 				; optimize FAIL ('KERNAL.LOADBYTES', /Users/manuelvio/sviluppo/PETSCII-Boy-3000/pascal/PetsciiBoy3000.pas), line = 326
  5101
  5102 2F99 E8				inx
  5103 2F9A AD 7A 29 95 16		mva NEURALNET.BIASESHIDDEN :STACKORIGIN,x
  5104 2F9F AD 7B 29 95 26		mva NEURALNET.BIASESHIDDEN+1 :STACKORIGIN+STACKWIDTH,x
  5105 2FA4 E8				inx
  5106 2FA5 AD 92 9C 95 16		mva DEVICE :STACKORIGIN,x
  5107 2FAA E8				inx
  5108 2FAB A0 10			ldy #$10
  5109 2FAD B9 F2 09 99 EB 42 + 	mva:rpl $09F2,y KERNAL.LOADBYTES.adr.FILENAME,y-
  5110 2FB6 20 61 1C			jsr KERNAL.LOADBYTES
  5111
  5112 				; optimize FAIL ('KERNAL.LOADBYTES', /Users/manuelvio/sviluppo/PETSCII-Boy-3000/pascal/PetsciiBoy3000.pas), line = 327
  5113
  5114 2FB9 E8				inx
  5115 2FBA AD 80 29 95 16		mva NEURALNET.BIASESOUTPUT :STACKORIGIN,x
  5116 2FBF AD 81 29 95 26		mva NEURALNET.BIASESOUTPUT+1 :STACKORIGIN+STACKWIDTH,x
  5117 2FC4 E8				inx
  5118 2FC5 AD 92 9C 95 16		mva DEVICE :STACKORIGIN,x
  5119 2FCA E8				inx
  5120 2FCB A0 10			ldy #$10
  5121 2FCD B9 F9 09 99 EB 42 + 	mva:rpl $09F9,y KERNAL.LOADBYTES.adr.FILENAME,y-
  5122 2FD6 20 61 1C			jsr KERNAL.LOADBYTES
  5123
  5124 				; ------------------------------------------------------------
  5125
  5126 = 9C92			DEVICE	= DATAORIGIN+$5EB1
  5127
  5128 = 9C92			@VarData	= DEVICE
  5129 = 0001			@VarDataSize	= 1
  5130
  5131 2FD9			@exit
  5132 					.ifdef @new
  5133 					lda <@VarData
  5134 					sta :ztmp
  5135 					lda >@VarData
  5136 					ldy #@VarDataSize-1
  5137 					jmp @FreeMem
  5138 					els
  5139 2FD9 60				rts						; ret
  5140 					eif
  5141 				.endl
  5142
  5143 2FDA			.local	INIT						; PROCEDURE
  5144
  5145 				; optimize FAIL ('SYSTEM.RANDOMIZE', /Users/manuelvio/sviluppo/PETSCII-Boy-3000/pascal/PetsciiBoy3000.pas), line = 336
  5146
  5147 2FDA 20 87 18			jsr SYSTEM.RANDOMIZE
  5148
  5149 				; optimize FAIL ('CRT.CLRSCR', /Users/manuelvio/sviluppo/PETSCII-Boy-3000/pascal/PetsciiBoy3000.pas), line = 337
  5150
  5151 2FDD 20 F4 18			jsr CRT.CLRSCR
  5152
  5153 				; optimize OK (/Users/manuelvio/sviluppo/PETSCII-Boy-3000/pascal/PetsciiBoy3000.pas), line = 338
  5154
  5155 2FE0 A9 00			lda #$00
  5156 2FE2 8D 20 D0			sta C64.BORDERCOLOR
  5157
  5158 				; optimize OK (/Users/manuelvio/sviluppo/PETSCII-Boy-3000/pascal/PetsciiBoy3000.pas), line = 339
  5159
  5160 2FE5 8D 21 D0			sta C64.BACKGROUNDCOLOR0
  5161
  5162 				; optimize FAIL ('LOADBACKGROUND', /Users/manuelvio/sviluppo/PETSCII-Boy-3000/pascal/PetsciiBoy3000.pas), line = 340
  5163
  5164 2FE8 E8				inx
  5165 2FE9 A9 08 95 16			mva #$08 :STACKORIGIN,x
  5166 2FED E8				inx
  5167 2FEE A0 10			ldy #$10
  5168 2FF0 B9 00 0A 99 69 9C + 	mva:rpl $0A00,y LOADBACKGROUND.adr.FILENAME,y-
  5169 2FF9 20 8B 2D			jsr LOADBACKGROUND
  5170
  5171 				; optimize OK (/Users/manuelvio/sviluppo/PETSCII-Boy-3000/pascal/PetsciiBoy3000.pas), line = 343
  5172
  5173 2FFC A9 01			lda #$01
  5174 2FFE 8D 15 D0			sta C64.ENABLESPRITES
  5175
  5176 				; optimize OK (/Users/manuelvio/sviluppo/PETSCII-Boy-3000/pascal/PetsciiBoy3000.pas), line = 344
  5177
  5178 3001 A9 0D			lda #$0D
  5179 3003 8D F8 07			sta SPRITE0ADDRMULT
  5180
  5181 				; optimize OK (/Users/manuelvio/sviluppo/PETSCII-Boy-3000/pascal/PetsciiBoy3000.pas), line = 345
  5182
  5183 3006 A9 0E			lda #$0E
  5184 3008 8D F9 07			sta SPRITE1ADDRMULT
  5185
  5186 				; optimize OK (/Users/manuelvio/sviluppo/PETSCII-Boy-3000/pascal/PetsciiBoy3000.pas), line = 346
  5187
  5188 300B A9 01			lda #$01
  5189 300D 8D 17 D0			sta C64.SPRITEYEXPANSION
  5190
  5191 				; optimize OK (/Users/manuelvio/sviluppo/PETSCII-Boy-3000/pascal/PetsciiBoy3000.pas), line = 347
  5192
  5193 3010 8D 1D D0			sta C64.SPRITEXEXPANSION
  5194
  5195 				; optimize OK (/Users/manuelvio/sviluppo/PETSCII-Boy-3000/pascal/PetsciiBoy3000.pas), line = 348
  5196
  5197 3013 8D 10 D0			sta C64.SPRITESXMSB
  5198
  5199 				; optimize OK (/Users/manuelvio/sviluppo/PETSCII-Boy-3000/pascal/PetsciiBoy3000.pas), line = 349
  5200
  5201 3016 A9 31			lda #$31
  5202 3018 8D 00 D0			sta C64.SPRITE0X
  5203
  5204 				; optimize OK (/Users/manuelvio/sviluppo/PETSCII-Boy-3000/pascal/PetsciiBoy3000.pas), line = 350
  5205
  5206 301B A9 3A			lda #$3A
  5207 301D 8D 01 D0			sta C64.SPRITE0Y
  5208
  5209 				; optimize OK (/Users/manuelvio/sviluppo/PETSCII-Boy-3000/pascal/PetsciiBoy3000.pas), line = 351
  5210
  5211 3020 A9 0D			lda #$0D
  5212 3022 8D 27 D0			sta C64.SPRITE0COLOR
  5213
  5214 				; optimize OK (/Users/manuelvio/sviluppo/PETSCII-Boy-3000/pascal/PetsciiBoy3000.pas), line = 352
  5215
  5216 3025 A9 07			lda #$07
  5217 3027 8D 28 D0			sta C64.SPRITE1COLOR
  5218
  5219 				; optimize OK (/Users/manuelvio/sviluppo/PETSCII-Boy-3000/pascal/PetsciiBoy3000.pas), line = 354
  5220
  5221 302A A9 20			lda #$20
  5222 302C 8D 02 D0			sta C64.SPRITE1X
  5223
  5224 				; optimize OK (/Users/manuelvio/sviluppo/PETSCII-Boy-3000/pascal/PetsciiBoy3000.pas), line = 355
  5225
  5226 302F A9 3A			lda #$3A
  5227 3031 8D 03 D0			sta C64.SPRITE1Y
  5228
  5229 				; optimize OK (/Users/manuelvio/sviluppo/PETSCII-Boy-3000/pascal/PetsciiBoy3000.pas), line = 356
  5230
  5231 3034 AD 25 3D			lda CURSORSPRITEDATA
  5232 3037 85 0A			sta SYSTEM.MOVE.@03018100003000000300000.SOURCE
  5233 3039 AD 26 3D			lda CURSORSPRITEDATA+1
  5234 303C 85 0B			sta SYSTEM.MOVE.@03018100003000000300000.SOURCE+1
  5235 303E AD 27 3D			lda CURSORSPRITE
  5236 3041 85 0E			sta SYSTEM.MOVE.@03018100003000000300000.DEST
  5237 3043 AD 28 3D			lda CURSORSPRITE+1
  5238 3046 85 0F			sta SYSTEM.MOVE.@03018100003000000300000.DEST+1
  5239 3048 A9 40			lda #$40
  5240 304A 85 06			sta SYSTEM.MOVE.@03018100003000000300000.COUNT
  5241 304C A9 00			lda #$00
  5242 304E 85 07			sta SYSTEM.MOVE.@03018100003000000300000.COUNT+1
  5243 3050				.LOCAL +MAIN.SYSTEM.MOVE.@03018100003000000300000
  5244 3050				m@INLINE
Macro: MAIN.SYSTEM.MOVE.@03018100003000000300000.M@INLINE [Source: PetsciiBoy3000.a65]
     4 3050 20 55 0C			jsr @move
Source: PetsciiBoy3000.a65
  5245 					.ENDL
  5246
  5247 				; optimize OK (/Users/manuelvio/sviluppo/PETSCII-Boy-3000/pascal/PetsciiBoy3000.pas), line = 357
  5248
  5249 3053 A9 05			lda #$05
  5250 3055 8D 86 02			sta CURRENTCOLOR
  5251
  5252 3058			@exit
  5253 					.ifdef @new
  5254 					lda <@VarData
  5255 					sta :ztmp
  5256 					lda >@VarData
  5257 					ldy #@VarDataSize-1
  5258 					jmp @FreeMem
  5259 					els
  5260 3058 60				rts						; ret
  5261 					eif
  5262 				.endl
  5263
  5264 3059			.local	DRAWDIGIT					; PROCEDURE
  5265
  5266 				; optimize OK (/Users/manuelvio/sviluppo/PETSCII-Boy-3000/pascal/PetsciiBoy3000.pas), line = 372
  5267
  5268 3059 A9 00			lda #$00
  5269 305B 8D 96 9C			sta DY
  5270
  5271 305E			l_0D9B
  5272 				; --- ForToDoCondition
  5273 305E AD 96 9C			lda DY
  5274 3061 C9 10			cmp #$10
  5275 3063 B0 3E			jcs l_0DA9
  5276
  5277 				; optimize OK (/Users/manuelvio/sviluppo/PETSCII-Boy-3000/pascal/PetsciiBoy3000.pas), line = 373
  5278
  5279 3065 A9 00			lda #$00
  5280 3067 8D 95 9C			sta DX
  5281
  5282 306A			l_0DB2
  5283 				; --- ForToDoCondition
  5284 306A AD 95 9C			lda DX
  5285 306D C9 02			cmp #$02
  5286 306F B0 2D			jcs l_0DC0
  5287
  5288 				; optimize OK (/Users/manuelvio/sviluppo/PETSCII-Boy-3000/pascal/PetsciiBoy3000.pas), line = 374
  5289
  5290 3071 AD 96 9C			lda DY
  5291 3074 0A				asl @
  5292 3075 18 6D 95 9C			add DX
  5293 3079 18 6D 96 9C			add DY
  5294 307D 85 1F			sta :STACKORIGIN+9
  5295 307F AD 96 9C			lda DY
  5296 3082 0A				asl @
  5297 3083 18 6D 95 9C			add DX
  5298 3087 AC 93 9C 84 04 AC + 	mwy INPUT :bp2
  5299 3091 A8				tay
  5300 3092 B1 04			lda (:bp2),y
  5301 3094 A4 1F			ldy :STACKORIGIN+9
  5302 3096 99 40 03			sta adr.DIGITSPRITE,y
  5303
  5304 				; --- ForToDoEpilog
  5305 3099 EE 95 9C			inc DX
  5306 309C D0 CC			jne l_0DB2
  5307 309E			l_0DC0
  5308
  5309 				; --- ForToDoEpilog
  5310 309E EE 96 9C			inc DY
  5311 30A1 D0 BB			jne l_0D9B
  5312 30A3			l_0DA9
  5313
  5314 				; ------------------------------------------------------------
  5315
  5316 = 9C93			INPUT	= DATAORIGIN+$5EB2
  5317 = 9C95			DX	= DATAORIGIN+$5EB4
  5318 = 9C96			DY	= DATAORIGIN+$5EB5
  5319
  5320 = 9C93			@VarData	= INPUT
  5321 = 0004			@VarDataSize	= 4
  5322
  5323 30A3			@exit
  5324 					.ifdef @new
  5325 					lda <@VarData
  5326 					sta :ztmp
  5327 					lda >@VarData
  5328 					ldy #@VarDataSize-1
  5329 					jmp @FreeMem
  5330 					els
  5331 30A3 60				rts						; ret
  5332 					eif
  5333 				.endl
  5334
  5335 30A4			.local	CLEARDIGIT					; PROCEDURE
  5336
  5337 				; optimize OK (/Users/manuelvio/sviluppo/PETSCII-Boy-3000/pascal/PetsciiBoy3000.pas), line = 387
  5338
  5339 30A4 A9 00			lda #$00
  5340 30A6 8D 98 9C			sta DY
  5341
  5342 30A9			l_0DF7
  5343 				; --- ForToDoCondition
  5344 30A9 AD 98 9C			lda DY
  5345 30AC C9 10			cmp #$10
  5346 30AE B0 3F			jcs l_0E05
  5347
  5348 				; optimize OK (/Users/manuelvio/sviluppo/PETSCII-Boy-3000/pascal/PetsciiBoy3000.pas), line = 388
  5349
  5350 30B0 A9 00			lda #$00
  5351 30B2 8D 97 9C			sta DX
  5352
  5353 30B5			l_0E0E
  5354 				; --- ForToDoCondition
  5355 30B5 AD 97 9C			lda DX
  5356 30B8 C9 02			cmp #$02
  5357 30BA B0 2E			jcs l_0E1C
  5358
  5359 				; optimize OK (/Users/manuelvio/sviluppo/PETSCII-Boy-3000/pascal/PetsciiBoy3000.pas), line = 389
  5360
  5361 30BC A9 00			lda #$00
  5362 30BE 85 2F			sta :STACKORIGIN+STACKWIDTH+9
  5363 30C0 AD 98 9C			lda DY
  5364 30C3 0A				asl @
  5365 30C4 26 2F			rol :STACKORIGIN+STACKWIDTH+9
  5366 30C6 18 6D 97 9C			add DX
  5367 30CA 18 6D 98 9C			add DY
  5368 30CE 85 1F			sta :STACKORIGIN+9
  5369 30D0 A5 2F			lda :STACKORIGIN+STACKWIDTH+9
  5370 30D2 69 00			adc #$00
  5371 30D4 85 2F			sta :STACKORIGIN+STACKWIDTH+9
  5372 30D6 A5 1F			lda :STACKORIGIN+9
  5373 30D8 18 69 00			add #$00
  5374 30DB A8				tay
  5375 30DC A5 2F			lda :STACKORIGIN+STACKWIDTH+9
  5376 30DE 69 00			adc #$00
  5377 30E0 A9 00			lda #$00
  5378 30E2 99 40 03			sta adr.DIGITSPRITE,y
  5379
  5380 				; --- ForToDoEpilog
  5381 30E5 EE 97 9C			inc DX
  5382 30E8 D0 CB			jne l_0E0E
  5383 30EA			l_0E1C
  5384
  5385 				; --- ForToDoEpilog
  5386 30EA EE 98 9C			inc DY
  5387 30ED D0 BA			jne l_0DF7
  5388 30EF			l_0E05
  5389
  5390 				; ------------------------------------------------------------
  5391
  5392 = 9C97			DX	= DATAORIGIN+$5EB6
  5393 = 9C98			DY	= DATAORIGIN+$5EB7
  5394
  5395 = 9C97			@VarData	= DX
  5396 = 0002			@VarDataSize	= 2
  5397
  5398 30EF			@exit
  5399 					.ifdef @new
  5400 					lda <@VarData
  5401 					sta :ztmp
  5402 					lda >@VarData
  5403 					ldy #@VarDataSize-1
  5404 					jmp @FreeMem
  5405 					els
  5406 30EF 60				rts						; ret
  5407 					eif
  5408 				.endl
  5409
  5410 30F0			.local	SHUFFLEBATCHINDEXES				; PROCEDURE
  5411
  5412 				; optimize OK (/Users/manuelvio/sviluppo/PETSCII-Boy-3000/pascal/PetsciiBoy3000.pas), line = 400
  5413
  5414 30F0 A9 00			lda #$00
  5415 30F2 8D 99 9C			sta I
  5416
  5417 30F5			l_0E44
  5418 				; --- ForToDoCondition
  5419 30F5 AD 99 9C			lda I
  5420 30F8 C9 10			cmp #$10
  5421 30FA B0 2B			jcs l_0E52
  5422
  5423 				; optimize OK (/Users/manuelvio/sviluppo/PETSCII-Boy-3000/pascal/PetsciiBoy3000.pas), line = 402
  5424
  5425 30FC			?volatile:
  5426 30FC AD 1B D4			lda C64.RANDOM
  5427 30FF 29 0F			and #$0F
  5428 3101 8D 9B 9C			sta J
  5429
  5430 				; optimize OK (/Users/manuelvio/sviluppo/PETSCII-Boy-3000/pascal/PetsciiBoy3000.pas), line = 403
  5431
  5432 3104 AC 99 9C			ldy I
  5433 3107 B9 B7 8B			lda adr.BATCHINDEXES,y
  5434 310A 8D 9A 9C			sta TMP
  5435
  5436 				; optimize OK (/Users/manuelvio/sviluppo/PETSCII-Boy-3000/pascal/PetsciiBoy3000.pas), line = 404
  5437
  5438 310D AC 9B 9C			ldy J
  5439 3110 B9 B7 8B			lda adr.BATCHINDEXES,y
  5440 3113 AC 99 9C			ldy I
  5441 3116 99 B7 8B			sta adr.BATCHINDEXES,y
  5442
  5443 				; optimize OK (/Users/manuelvio/sviluppo/PETSCII-Boy-3000/pascal/PetsciiBoy3000.pas), line = 405
  5444
  5445 3119 AC 9B 9C			ldy J
  5446 311C AD 9A 9C			lda TMP
  5447 311F 99 B7 8B			sta adr.BATCHINDEXES,y
  5448
  5449 				; --- ForToDoEpilog
  5450 3122 EE 99 9C			inc I
  5451 3125 D0 CE			jne l_0E44
  5452 3127			l_0E52
  5453
  5454 				; ------------------------------------------------------------
  5455
  5456 = 9C99			I	= DATAORIGIN+$5EB8
  5457 = 9C9A			TMP	= DATAORIGIN+$5EB9
  5458 = 9C9B			J	= DATAORIGIN+$5EBA
  5459
  5460 = 9C99			@VarData	= I
  5461 = 0003			@VarDataSize	= 3
  5462
  5463 3127			@exit
  5464 					.ifdef @new
  5465 					lda <@VarData
  5466 					sta :ztmp
  5467 					lda >@VarData
  5468 					ldy #@VarDataSize-1
  5469 					jmp @FreeMem
  5470 					els
  5471 3127 60				rts						; ret
  5472 					eif
  5473 				.endl
  5474
  5475 3128			.local	C64RANDOMIZE					; PROCEDURE | ASSEMBLER
  5476
  5477 				; -------------------  ASM Block 00000103  -------------------
  5478
  5479 3128 A9 FF		  lda #$ff  ; maximum frequency value
  5480 312A 8D 0E D4		  sta $D40E ; voice 3 frequency low byte
  5481 312D 8D 0F D4		  sta $D40F ; voice 3 frequency high byte
  5482 3130 A9 80		  lda #$80  ; noise waveform, gate bit off
  5483 3132 8D 12 D4		  sta $D412 ; voice 3 control register
  5484
  5485 3135			@exit
  5486 					.ifdef @new
  5487 					lda <@VarData
  5488 					sta :ztmp
  5489 					lda >@VarData
  5490 					ldy #@VarDataSize-1
  5491 					jmp @FreeMem
  5492 					els
  5493 3135 60				rts						; ret
  5494 					eif
  5495 				.endl
  5496
  5497 3136			.local	CLEARSCREENAREA					; PROCEDURE
  5498
  5499 				; optimize OK (/Users/manuelvio/sviluppo/PETSCII-Boy-3000/pascal/PetsciiBoy3000.pas), line = 435
  5500
  5501 3136 AD 9D 9C			lda Y1
  5502 3139 8D A1 9C			sta Y
  5503
  5504 313C			l_0E91
  5505 				; --- ForToDoCondition
  5506 313C AD A1 9C			lda Y
  5507 313F CD 9F 9C			cmp Y2
  5508 3142 90 02			scc
  5509 3144 D0 2F			jne l_0E9F
  5510
  5511 				; optimize OK (/Users/manuelvio/sviluppo/PETSCII-Boy-3000/pascal/PetsciiBoy3000.pas), line = 436
  5512
  5513 3146 AD 9C 9C			lda X1
  5514 3149 8D A0 9C			sta X
  5515
  5516 314C			l_0EAC
  5517 				; --- ForToDoCondition
  5518 314C AD A0 9C			lda X
  5519 314F CD 9E 9C			cmp X2
  5520 3152 90 02			scc
  5521 3154 D0 1A			jne l_0EBA
  5522
  5523 				; optimize OK (/Users/manuelvio/sviluppo/PETSCII-Boy-3000/pascal/PetsciiBoy3000.pas), line = 437
  5524
  5525 3156 AD A1 9C			lda Y
  5526 3159 20 D2 12			jsr @mul40
  5527 315C 18 6D A0 9C			add X
  5528 3160 A8				tay
  5529 3161 A9 04			lda #$04
  5530 3163 65 07			adc :eax+1
  5531 3165 85 03			sta :bp+1
  5532 3167 A9 20			lda #$20
  5533 3169 91 02			sta (:bp),y
  5534
  5535 				; --- ForToDoEpilog
  5536 316B EE A0 9C			inc X
  5537 316E D0 DC			jne l_0EAC
  5538 3170			l_0EBA
  5539
  5540 				; --- ForToDoEpilog
  5541 3170 EE A1 9C			inc Y
  5542 3173 D0 C7			jne l_0E91
  5543 3175			l_0E9F
  5544
  5545 				; ------------------------------------------------------------
  5546
  5547 = 9C9C			X1	= DATAORIGIN+$5EBB
  5548 = 9C9D			Y1	= DATAORIGIN+$5EBC
  5549 = 9C9E			X2	= DATAORIGIN+$5EBD
  5550 = 9C9F			Y2	= DATAORIGIN+$5EBE
  5551 = 9CA0			X	= DATAORIGIN+$5EBF
  5552 = 9CA1			Y	= DATAORIGIN+$5EC0
  5553
  5554 = 9C9C			@VarData	= X1
  5555 = 0006			@VarDataSize	= 6
  5556
  5557 3175			@exit
  5558 					.ifdef @new
  5559 					lda <@VarData
  5560 					sta :ztmp
  5561 					lda >@VarData
  5562 					ldy #@VarDataSize-1
  5563 					jmp @FreeMem
  5564 					els
  5565 3175 60				rts						; ret
  5566 					eif
  5567 				.endl
  5568
  5569 3176			.local	DISPLAYMENU					; PROCEDURE
  5570
  5571 				; ------------------------------------------------------------
  5572
  5573 				; Generate Assignment for WORD / SMALLINT / SHORTREAL / POINTER
  5574 				; as Pointer
  5575 3176 B5 16			lda :STACKORIGIN,x
  5576 3178 85 04			sta :bp2
  5577 317A B5 26			lda :STACKORIGIN+STACKWIDTH,x
  5578 317C 85 05			sta :bp2+1
  5579 317E A0 09			ldy #$09
  5580 3180 B1 04 99 A2 9C 88 + 	mva:rpl (:bp2),y adr.MENUADDR,y-
  5581 3188 CA				dex
  5582 3189			@main
  5583
  5584 				; optimize OK (/Users/manuelvio/sviluppo/PETSCII-Boy-3000/pascal/PetsciiBoy3000.pas), line = 447
  5585
  5586 3189 A9 13			lda #$13
  5587 318B 8D 9C 9C			sta CLEARSCREENAREA.X1
  5588 318E A9 07			lda #$07
  5589 3190 8D 9D 9C			sta CLEARSCREENAREA.Y1
  5590 3193 A9 26			lda #$26
  5591 3195 8D 9E 9C			sta CLEARSCREENAREA.X2
  5592 3198 A9 10			lda #$10
  5593 319A 8D 9F 9C			sta CLEARSCREENAREA.Y2
  5594 319D 20 36 31			jsr CLEARSCREENAREA
  5595
  5596 				; optimize OK (/Users/manuelvio/sviluppo/PETSCII-Boy-3000/pascal/PetsciiBoy3000.pas), line = 448
  5597
  5598 31A0 A9 00			lda #$00
  5599 31A2 8D AC 9C			sta I
  5600
  5601 31A5			l_0EEA
  5602 				; --- ForToDoCondition
  5603 31A5 AD AC 9C			lda I
  5604 31A8 C9 05			cmp #$05
  5605 31AA B0 29			jcs l_0EF8
  5606
  5607 				; optimize OK (/Users/manuelvio/sviluppo/PETSCII-Boy-3000/pascal/PetsciiBoy3000.pas), line = 450
  5608
  5609 31AC A9 08			lda #$08
  5610 31AE 6D AC 9C			adc I
  5611 31B1 8D 35 3E			sta CRT.GOTOXY.Y
  5612 31B4 A9 14			lda #$14
  5613 31B6 8D 34 3E			sta CRT.GOTOXY.X
  5614 31B9 20 17 19			jsr CRT.GOTOXY
  5615
  5616 				; optimize FAIL ('@print', /Users/manuelvio/sviluppo/PETSCII-Boy-3000/pascal/PetsciiBoy3000.pas), line = 451
  5617
  5618 31BC E8				inx
  5619 31BD AD AC 9C			lda I
  5620 31C0 0A				asl @
  5621 31C1 A8				tay
  5622 31C2 B9 A3 9C			lda adr.MENUADDR+1,y
  5623 31C5 95 26			sta :STACKORIGIN+STACKWIDTH,x
  5624 31C7 B9 A2 9C			lda adr.MENUADDR,y
  5625 31CA B4 26			ldy :STACKORIGIN+STACKWIDTH,x
  5626 31CC 20 14 14			jsr @printSTRING
  5627 31CF CA				dex
  5628
  5629 				; --- ForToDoEpilog
  5630 31D0 EE AC 9C			inc I
  5631 31D3 D0 D0			jne l_0EEA
  5632 31D5			l_0EF8
  5633
  5634 				; ------------------------------------------------------------
  5635
  5636 = 9CA2			adr.MENUADDR	= [DATAORIGIN+$5EC1] .array [5] .word
  5637 31D5			.var MENUADDR	= adr.MENUADDR .word
  5638 = 9CAC			I	= DATAORIGIN+$5ECB
  5639
  5640 = 31D6			@VarData	= MENUADDR
  5641 = 000B			@VarDataSize	= 11
  5642
  5643 31D5			@exit
  5644 					.ifdef @new
  5645 					lda <@VarData
  5646 					sta :ztmp
  5647 					lda >@VarData
  5648 					ldy #@VarDataSize-1
  5649 					jmp @FreeMem
  5650 					els
  5651 31D5 60				rts						; ret
  5652 					eif
  5653 = 31D6 A2 9C		MENUADDR
  5653 				.endl
  5654
  5655 31D8			.local	CANVASTOINPUT					; PROCEDURE
  5656
  5657 				; optimize OK (/Users/manuelvio/sviluppo/PETSCII-Boy-3000/pascal/PetsciiBoy3000.pas), line = 465
  5658
  5659 31D8 A9 00			lda #$00
  5660 31DA 8D AF 9C			sta BYTEVALUE
  5661
  5662 				; optimize OK (/Users/manuelvio/sviluppo/PETSCII-Boy-3000/pascal/PetsciiBoy3000.pas), line = 466
  5663
  5664 31DD 8D B2 9C			sta Y
  5665
  5666 31E0			l_0F1C
  5667 				; --- ForToDoCondition
  5668 31E0 AD B2 9C			lda Y
  5669 31E3 C9 10			cmp #$10
  5670 31E5 90 03 4C 9E 32		jcs l_0F2A
  5671
  5672 				; optimize OK (/Users/manuelvio/sviluppo/PETSCII-Boy-3000/pascal/PetsciiBoy3000.pas), line = 467
  5673
  5674 31EA A9 00			lda #$00
  5675 31EC 8D B1 9C			sta X
  5676
  5677 31EF			l_0F33
  5678 				; --- ForToDoCondition
  5679 31EF AD B1 9C			lda X
  5680 31F2 C9 10			cmp #$10
  5681 31F4 90 03 4C 96 32		jcs l_0F41
  5682
  5683 				; optimize OK (/Users/manuelvio/sviluppo/PETSCII-Boy-3000/pascal/PetsciiBoy3000.pas), line = 469
  5684
  5685 31F9 A9 00			lda #$00
  5686 31FB 85 2F			sta :STACKORIGIN+STACKWIDTH+9
  5687 31FD AD B2 9C			lda Y
  5688 3200 0A				asl @
  5689 3201 26 2F			rol :STACKORIGIN+STACKWIDTH+9
  5690 3203 0A				asl @
  5691 3204 26 2F			rol :STACKORIGIN+STACKWIDTH+9
  5692 3206 0A				asl @
  5693 3207 0A				asl @
  5694 3208 18 6D B1 9C			add X
  5695 320C 8D B0 9C			sta I
  5696
  5697 				; optimize OK (/Users/manuelvio/sviluppo/PETSCII-Boy-3000/pascal/PetsciiBoy3000.pas), line = 470
  5698
  5699 320F A9 01			lda #$01
  5700 3211 18 6D B2 9C			add Y
  5701 3215 85 06			sta :eax
  5702 3217 A9 00			lda #$00
  5703 3219 69 00			adc #$00
  5704 321B 85 07			sta :eax+1
  5705 321D A9 28			lda #$28
  5706 321F 85 0E			sta :ecx
  5707 3221 A9 00			lda #$00
  5708 3223 85 0F			sta :ecx+1
  5709 					.ifdef fmulinit
  5710 					fmulu_16
  5711 					els
  5712 3225 20 14 0D			imulCX
  5713 					eif
  5714 3228 A5 06			lda :eax
  5715 322A 18 6D B1 9C			add X
  5716 322E 85 04			sta :bp2
  5717 3230 A5 07			lda :eax+1
  5718 3232 69 04			adc #$04
  5719 3234 85 05			sta :bp2+1
  5720 3236 A0 01			ldy #$01
  5721 3238 B1 04			lda (:bp2),y
  5722 323A C9 2A			cmp #$2A
  5723 323C D0 2C			jne l_0F78
  5724
  5725 				; optimize OK (/Users/manuelvio/sviluppo/PETSCII-Boy-3000/pascal/PetsciiBoy3000.pas), line = 471
  5726
  5727 323E AD B0 9C			lda I
  5728 3241 29 07			and #$07
  5729 3243 85 22			sta :STACKORIGIN+12
  5730 3245 A9 07			lda #$07
  5731 3247 38 E5 22			sub :STACKORIGIN+12
  5732 324A 85 21			sta :STACKORIGIN+11
  5733 324C A9 00			lda #$00
  5734 324E 85 50			sta :STACKORIGIN+STACKWIDTH*3+10
  5735 3250 85 40			sta :STACKORIGIN+STACKWIDTH*2+10
  5736 3252 85 30			sta :STACKORIGIN+STACKWIDTH+10
  5737 3254 A9 01			lda #$01
  5738 3256 A4 21			ldy :STACKORIGIN+11
  5739 3258 F0 0A			beq l_0002_e
  5740 325A			l_0002_b
  5741 325A 0A				asl @
  5742 325B 26 30			rol :STACKORIGIN+STACKWIDTH+10
  5743 325D 26 40			rol :STACKORIGIN+STACKWIDTH*2+10
  5744 325F 26 50			rol :STACKORIGIN+STACKWIDTH*3+10
  5745 3261 88				dey
  5746 3262 D0 F6			bne l_0002_b
  5747 3264			l_0002_e
  5748 3264 0D AF 9C			ora BYTEVALUE
  5749 3267 8D AF 9C			sta BYTEVALUE
  5750 326A			l_0F78
  5751
  5752 				; optimize OK (/Users/manuelvio/sviluppo/PETSCII-Boy-3000/pascal/PetsciiBoy3000.pas), line = 472
  5753
  5754 326A AD B0 9C			lda I
  5755 326D 29 07			and #$07
  5756 326F C9 07			cmp #$07
  5757 3271 D0 1B			jne l_0FA9
  5758
  5759 				; optimize OK (/Users/manuelvio/sviluppo/PETSCII-Boy-3000/pascal/PetsciiBoy3000.pas), line = 474
  5760
  5761 3273 AD B0 9C			lda I
  5762 3276 4A				lsr @
  5763 3277 4A				lsr @
  5764 3278 4A				lsr @
  5765 3279 AC AD 9C 84 04 AC + 	mwy INPUT :bp2
  5766 3283 A8				tay
  5767 3284 AD AF 9C			lda BYTEVALUE
  5768 3287 91 04			sta (:bp2),y
  5769
  5770 				; optimize OK (/Users/manuelvio/sviluppo/PETSCII-Boy-3000/pascal/PetsciiBoy3000.pas), line = 475
  5771
  5772 3289 A9 00			lda #$00
  5773 328B 8D AF 9C			sta BYTEVALUE
  5774 328E			l_0FA9
  5775
  5776 				; --- ForToDoEpilog
  5777 328E EE B1 9C			inc X
  5778 3291 F0 03 4C EF 31		jne l_0F33
  5779 3296			l_0F41
  5780
  5781 				; --- ForToDoEpilog
  5782 3296 EE B2 9C			inc Y
  5783 3299 F0 03 4C E0 31		jne l_0F1C
  5784 329E			l_0F2A
  5785
  5786 				; ------------------------------------------------------------
  5787
  5788 = 9CAD			INPUT	= DATAORIGIN+$5ECC
  5789 = 9CAF			BYTEVALUE	= DATAORIGIN+$5ECE
  5790 = 9CB0			I	= DATAORIGIN+$5ECF
  5791 = 9CB1			X	= DATAORIGIN+$5ED0
  5792 = 9CB2			Y	= DATAORIGIN+$5ED1
  5793
  5794 = 9CAD			@VarData	= INPUT
  5795 = 0006			@VarDataSize	= 6
  5796
  5797 329E			@exit
  5798 					.ifdef @new
  5799 					lda <@VarData
  5800 					sta :ztmp
  5801 					lda >@VarData
  5802 					ldy #@VarDataSize-1
  5803 					jmp @FreeMem
  5804 					els
  5805 329E 60				rts						; ret
  5806 					eif
  5807 				.endl
  5808
  5809 329F			.local	DRAWHIDDENACTIVATIONS				; PROCEDURE
  5810
  5811 				; optimize OK (/Users/manuelvio/sviluppo/PETSCII-Boy-3000/pascal/PetsciiBoy3000.pas), line = 489
  5812
  5813 329F AD 86 02			lda CURRENTCOLOR
  5814 32A2 8D B4 9C			sta BAKCOLOR
  5815
  5816 				; optimize OK (/Users/manuelvio/sviluppo/PETSCII-Boy-3000/pascal/PetsciiBoy3000.pas), line = 490
  5817
  5818 32A5 A9 14			lda #$14
  5819 32A7 8D 34 3E			sta CRT.GOTOXY.X
  5820 32AA A9 03			lda #$03
  5821 32AC 8D 35 3E			sta CRT.GOTOXY.Y
  5822 32AF 20 17 19			jsr CRT.GOTOXY
  5823 32B2 A9 0D			lda #$0D
  5824 32B4 8D 86 02			sta CURRENTCOLOR
  5825
  5826 				; optimize OK (/Users/manuelvio/sviluppo/PETSCII-Boy-3000/pascal/PetsciiBoy3000.pas), line = 491
  5827
  5828 32B7 A9 00			lda #$00
  5829 32B9 8D B3 9C			sta I
  5830
  5831 32BC			l_0FE1
  5832 				; --- ForToDoCondition
  5833 32BC AD B3 9C			lda I
  5834 32BF C9 0E			cmp #$0E
  5835 32C1 90 03 4C 48 33		jcs l_0FEF
  5836
  5837 				; optimize FAIL ('@print', /Users/manuelvio/sviluppo/PETSCII-Boy-3000/pascal/PetsciiBoy3000.pas), line = 492
  5838
  5839 32C6 E8				inx
  5840 32C7 AD B3 9C			lda I
  5841 32CA 0A				asl @
  5842 32CB 0A				asl @
  5843 32CC A8				tay
  5844 32CD B9 3A 7B			lda NEURALNET.adr.ACTIVATIONSHIDDEN,y
  5845 32D0 95 16			sta :STACKORIGIN,x
  5846 32D2 B9 3B 7B			lda NEURALNET.adr.ACTIVATIONSHIDDEN+1,y
  5847 32D5 95 26			sta :STACKORIGIN+STACKWIDTH,x
  5848 32D7 B9 3C 7B			lda NEURALNET.adr.ACTIVATIONSHIDDEN+2,y
  5849 32DA 95 36			sta :STACKORIGIN+STACKWIDTH*2,x
  5850 32DC B9 3D 7B			lda NEURALNET.adr.ACTIVATIONSHIDDEN+3,y
  5851 32DF 95 46			sta :STACKORIGIN+STACKWIDTH*3,x
  5852 32E1 E8				inx
  5853 32E2 A9 00			lda #$00
  5854 32E4 85 0A			sta :FP2MAN0
  5855 32E6 A9 00			lda #$00
  5856 32E8 85 0B			sta :FP2MAN1
  5857 32EA A9 00			lda #$00
  5858 32EC 85 0C			sta :FP2MAN2
  5859 32EE A9 41			lda #$41
  5860 32F0 85 0D			sta :FP2MAN3
  5861 32F2 B5 15			lda :STACKORIGIN-1,x
  5862 32F4 85 06			sta :FP1MAN0
  5863 32F6 B5 25			lda :STACKORIGIN-1+STACKWIDTH,x
  5864 32F8 85 07			sta :FP1MAN1
  5865 32FA B5 35			lda :STACKORIGIN-1+STACKWIDTH*2,x
  5866 32FC 85 08			sta :FP1MAN2
  5867 32FE B5 45			lda :STACKORIGIN-1+STACKWIDTH*3,x
  5868 3300 85 09			sta :FP1MAN3
  5869 3302 20 F8 10			jsr @FMUL
  5870 3305 CA				dex
  5871 3306 A5 0E			lda :FPMAN0
  5872 3308 85 0A			sta :FP2MAN0
  5873 330A A5 0F			lda :FPMAN1
  5874 330C 85 0B			sta :FP2MAN1
  5875 330E A5 10			lda :FPMAN2
  5876 3310 85 0C			sta :FP2MAN2
  5877 3312 A5 11			lda :FPMAN3
  5878 3314 85 0D			sta :FP2MAN3
  5879 3316 20 50 0F			jsr @FROUND
  5880 3319 A5 0E			lda :FPMAN0
  5881 331B 95 16			sta :STACKORIGIN,x
  5882 331D A5 0F			lda :FPMAN1
  5883 331F 95 26			sta :STACKORIGIN+STACKWIDTH,x
  5884 3321 A5 10			lda :FPMAN2
  5885 3323 95 36			sta :STACKORIGIN+STACKWIDTH*2,x
  5886 3325 A5 11			lda :FPMAN3
  5887 3327 95 46			sta :STACKORIGIN+STACKWIDTH*3,x
  5888 3329 B5 26			lda :STACKORIGIN+STACKWIDTH,x
  5889 332B 16 16			asl :STACKORIGIN,x
  5890 332D 2A				rol @
  5891 332E 95 26			sta :STACKORIGIN+STACKWIDTH,x
  5892 3330 B4 16			ldy :STACKORIGIN,x
  5893 3332 B9 77 0B			lda adr.ACTIVATION_HISTOGRAM_LEVELS+1,y
  5894 3335 95 26			sta :STACKORIGIN+STACKWIDTH,x
  5895 3337 B9 76 0B			lda adr.ACTIVATION_HISTOGRAM_LEVELS,y
  5896 333A B4 26			ldy :STACKORIGIN+STACKWIDTH,x
  5897 333C 20 14 14			jsr @printSTRING
  5898 333F CA				dex
  5899
  5900 				; --- ForToDoEpilog
  5901 3340 EE B3 9C			inc I
  5902 3343 F0 03 4C BC 32		jne l_0FE1
  5903 3348			l_0FEF
  5904
  5905 				; optimize OK (/Users/manuelvio/sviluppo/PETSCII-Boy-3000/pascal/PetsciiBoy3000.pas), line = 493
  5906
  5907 3348 AD B4 9C			lda BAKCOLOR
  5908 334B 8D 86 02			sta CURRENTCOLOR
  5909
  5910 				; ------------------------------------------------------------
  5911
  5912 = 9CB3			I	= DATAORIGIN+$5ED2
  5913 = 9CB4			BAKCOLOR	= DATAORIGIN+$5ED3
  5914
  5915 = 9CB3			@VarData	= I
  5916 = 0002			@VarDataSize	= 2
  5917
  5918 334E			@exit
  5919 					.ifdef @new
  5920 					lda <@VarData
  5921 					sta :ztmp
  5922 					lda >@VarData
  5923 					ldy #@VarDataSize-1
  5924 					jmp @FreeMem
  5925 					els
  5926 334E 60				rts						; ret
  5927 					eif
  5928 				.endl
  5929
  5930 334F			.local	DRAWOUTPUTACTIVATIONS				; PROCEDURE
  5931
  5932 				; optimize OK (/Users/manuelvio/sviluppo/PETSCII-Boy-3000/pascal/PetsciiBoy3000.pas), line = 505
  5933
  5934 334F AD 86 02			lda CURRENTCOLOR
  5935 3352 8D B7 9C			sta BAKCOLOR
  5936
  5937 				; optimize OK (/Users/manuelvio/sviluppo/PETSCII-Boy-3000/pascal/PetsciiBoy3000.pas), line = 506
  5938
  5939 3355 A9 14			lda #$14
  5940 3357 8D 34 3E			sta CRT.GOTOXY.X
  5941 335A A9 05			lda #$05
  5942 335C 8D 35 3E			sta CRT.GOTOXY.Y
  5943 335F 20 17 19			jsr CRT.GOTOXY
  5944 3362 A9 0D			lda #$0D
  5945 3364 8D 86 02			sta CURRENTCOLOR
  5946
  5947 				; optimize OK (/Users/manuelvio/sviluppo/PETSCII-Boy-3000/pascal/PetsciiBoy3000.pas), line = 507
  5948
  5949 3367 A9 00			lda #$00
  5950 3369 8D B6 9C			sta I
  5951
  5952 336C			l_101E
  5953 				; --- ForToDoCondition
  5954 336C AD B6 9C			lda I
  5955 336F C9 0A			cmp #$0A
  5956 3371 90 03 4C F8 33		jcs l_102C
  5957
  5958 				; optimize FAIL ('@print', /Users/manuelvio/sviluppo/PETSCII-Boy-3000/pascal/PetsciiBoy3000.pas), line = 508
  5959
  5960 3376 E8				inx
  5961 3377 AD B6 9C			lda I
  5962 337A 0A				asl @
  5963 337B 0A				asl @
  5964 337C A8				tay
  5965 337D B9 CA 7D			lda NEURALNET.adr.ACTIVATIONSOUTPUT,y
  5966 3380 95 16			sta :STACKORIGIN,x
  5967 3382 B9 CB 7D			lda NEURALNET.adr.ACTIVATIONSOUTPUT+1,y
  5968 3385 95 26			sta :STACKORIGIN+STACKWIDTH,x
  5969 3387 B9 CC 7D			lda NEURALNET.adr.ACTIVATIONSOUTPUT+2,y
  5970 338A 95 36			sta :STACKORIGIN+STACKWIDTH*2,x
  5971 338C B9 CD 7D			lda NEURALNET.adr.ACTIVATIONSOUTPUT+3,y
  5972 338F 95 46			sta :STACKORIGIN+STACKWIDTH*3,x
  5973 3391 E8				inx
  5974 3392 A9 00			lda #$00
  5975 3394 85 0A			sta :FP2MAN0
  5976 3396 A9 00			lda #$00
  5977 3398 85 0B			sta :FP2MAN1
  5978 339A A9 00			lda #$00
  5979 339C 85 0C			sta :FP2MAN2
  5980 339E A9 41			lda #$41
  5981 33A0 85 0D			sta :FP2MAN3
  5982 33A2 B5 15			lda :STACKORIGIN-1,x
  5983 33A4 85 06			sta :FP1MAN0
  5984 33A6 B5 25			lda :STACKORIGIN-1+STACKWIDTH,x
  5985 33A8 85 07			sta :FP1MAN1
  5986 33AA B5 35			lda :STACKORIGIN-1+STACKWIDTH*2,x
  5987 33AC 85 08			sta :FP1MAN2
  5988 33AE B5 45			lda :STACKORIGIN-1+STACKWIDTH*3,x
  5989 33B0 85 09			sta :FP1MAN3
  5990 33B2 20 F8 10			jsr @FMUL
  5991 33B5 CA				dex
  5992 33B6 A5 0E			lda :FPMAN0
  5993 33B8 85 0A			sta :FP2MAN0
  5994 33BA A5 0F			lda :FPMAN1
  5995 33BC 85 0B			sta :FP2MAN1
  5996 33BE A5 10			lda :FPMAN2
  5997 33C0 85 0C			sta :FP2MAN2
  5998 33C2 A5 11			lda :FPMAN3
  5999 33C4 85 0D			sta :FP2MAN3
  6000 33C6 20 50 0F			jsr @FROUND
  6001 33C9 A5 0E			lda :FPMAN0
  6002 33CB 95 16			sta :STACKORIGIN,x
  6003 33CD A5 0F			lda :FPMAN1
  6004 33CF 95 26			sta :STACKORIGIN+STACKWIDTH,x
  6005 33D1 A5 10			lda :FPMAN2
  6006 33D3 95 36			sta :STACKORIGIN+STACKWIDTH*2,x
  6007 33D5 A5 11			lda :FPMAN3
  6008 33D7 95 46			sta :STACKORIGIN+STACKWIDTH*3,x
  6009 33D9 B5 26			lda :STACKORIGIN+STACKWIDTH,x
  6010 33DB 16 16			asl :STACKORIGIN,x
  6011 33DD 2A				rol @
  6012 33DE 95 26			sta :STACKORIGIN+STACKWIDTH,x
  6013 33E0 B4 16			ldy :STACKORIGIN,x
  6014 33E2 B9 77 0B			lda adr.ACTIVATION_HISTOGRAM_LEVELS+1,y
  6015 33E5 95 26			sta :STACKORIGIN+STACKWIDTH,x
  6016 33E7 B9 76 0B			lda adr.ACTIVATION_HISTOGRAM_LEVELS,y
  6017 33EA B4 26			ldy :STACKORIGIN+STACKWIDTH,x
  6018 33EC 20 14 14			jsr @printSTRING
  6019 33EF CA				dex
  6020
  6021 				; --- ForToDoEpilog
  6022 33F0 EE B6 9C			inc I
  6023 33F3 F0 03 4C 6C 33		jne l_101E
  6024 33F8			l_102C
  6025
  6026 				; optimize OK (/Users/manuelvio/sviluppo/PETSCII-Boy-3000/pascal/PetsciiBoy3000.pas), line = 509
  6027
  6028 33F8 AD B7 9C			lda BAKCOLOR
  6029 33FB 8D 86 02			sta CURRENTCOLOR
  6030
  6031 				; ------------------------------------------------------------
  6032
  6033 = 9CB6			I	= DATAORIGIN+$5ED5
  6034 = 9CB7			BAKCOLOR	= DATAORIGIN+$5ED6
  6035
  6036 = 9CB6			@VarData	= I
  6037 = 0002			@VarDataSize	= 2
  6038
  6039 33FE			@exit
  6040 					.ifdef @new
  6041 					lda <@VarData
  6042 					sta :ztmp
  6043 					lda >@VarData
  6044 					ldy #@VarDataSize-1
  6045 					jmp @FreeMem
  6046 					els
  6047 33FE 60				rts						; ret
  6048 					eif
  6049 				.endl
  6050
  6051 33FF			.local	DISPLAYCHAR					; PROCEDURE
  6052 33FF 8D B9 9C			sta DIGIT
  6053
  6054 				; optimize OK (/Users/manuelvio/sviluppo/PETSCII-Boy-3000/pascal/PetsciiBoy3000.pas), line = 520
  6055
  6056 3402 A9 01			lda #$01
  6057 3404 8D 9C 9C			sta CLEARSCREENAREA.X1
  6058 3407 8D 9D 9C			sta CLEARSCREENAREA.Y1
  6059 340A A9 10			lda #$10
  6060 340C 8D 9E 9C			sta CLEARSCREENAREA.X2
  6061 340F 8D 9F 9C			sta CLEARSCREENAREA.Y2
  6062 3412 20 36 31			jsr CLEARSCREENAREA
  6063
  6064 				; optimize OK (/Users/manuelvio/sviluppo/PETSCII-Boy-3000/pascal/PetsciiBoy3000.pas), line = 521
  6065
  6066 3415 AD 0E DC			lda C64.CIACRA
  6067 3418 29 FE			and #$FE
  6068 341A 8D 0E DC			sta C64.CIACRA
  6069
  6070 				; optimize OK (/Users/manuelvio/sviluppo/PETSCII-Boy-3000/pascal/PetsciiBoy3000.pas), line = 522
  6071
  6072 341D A5 01			lda C64.R6510
  6073 341F 29 FB			and #$FB
  6074 3421 85 01			sta C64.R6510
  6075
  6076 				; optimize OK (/Users/manuelvio/sviluppo/PETSCII-Boy-3000/pascal/PetsciiBoy3000.pas), line = 524
  6077
  6078 3423 A9 00			lda #$00
  6079 3425 A8				tay
  6080
  6081 3426			l_1067
  6082 				; --- ForToDoCondition
  6083 3426 8C F1 9B			sty ROW
  6084 3429 C0 08			cpy #$08
  6085 342B B0 30			jcs l_1075
  6086
  6087 				; optimize OK (/Users/manuelvio/sviluppo/PETSCII-Boy-3000/pascal/PetsciiBoy3000.pas), line = 525
  6088
  6089 342D A9 30			lda #$30
  6090 342F 6D B9 9C			adc DIGIT
  6091 3432 85 06			sta :eax
  6092 3434 A9 00			lda #$00
  6093 3436 69 00			adc #$00
  6094 3438 85 07			sta :eax+1
  6095 343A A9 08			lda #$08
  6096 343C 85 0E			sta :ecx
  6097 343E A9 00			lda #$00
  6098 3440 85 0F			sta :ecx+1
  6099 					.ifdef fmulinit
  6100 					fmulu_16
  6101 					els
  6102 3442 20 14 0D			imulCX
  6103 					eif
  6104 3445 AD F1 9B			lda ROW
  6105 3448 18 65 06			add :eax
  6106 344B A8				tay
  6107 344C A9 D0			lda #$D0
  6108 344E 65 07			adc :eax+1
  6109 3450 85 03			sta :bp+1
  6110 3452 B1 02			lda (:bp),y
  6111 3454 AC F1 9B			ldy ROW
  6112 3457 99 F3 9B			sta adr.CHARDATA,y
  6113
  6114 				; --- ForToDoEpilog
  6115 345A C8				iny
  6116 345B D0 C9			jne l_1067
  6117 345D			l_1075
  6118
  6119 				; optimize OK (/Users/manuelvio/sviluppo/PETSCII-Boy-3000/pascal/PetsciiBoy3000.pas), line = 526
  6120
  6121 345D A5 01			lda C64.R6510
  6122 345F 09 04			ora #$04
  6123 3461 85 01			sta C64.R6510
  6124
  6125 				; optimize OK (/Users/manuelvio/sviluppo/PETSCII-Boy-3000/pascal/PetsciiBoy3000.pas), line = 527
  6126
  6127 3463 AD 0E DC			lda C64.CIACRA
  6128 3466 09 01			ora #$01
  6129 3468 8D 0E DC			sta C64.CIACRA
  6130
  6131 				; optimize OK (/Users/manuelvio/sviluppo/PETSCII-Boy-3000/pascal/PetsciiBoy3000.pas), line = 530
  6132
  6133 346B A9 00			lda #$00
  6134 346D 8D F1 9B			sta ROW
  6135
  6136 3470			l_10B3
  6137 				; --- ForToDoCondition
  6138 3470 AD F1 9B			lda ROW
  6139 3473 C9 08			cmp #$08
  6140 3475 90 03 4C 36 36		jcs l_10C1
  6141
  6142 				; optimize OK (/Users/manuelvio/sviluppo/PETSCII-Boy-3000/pascal/PetsciiBoy3000.pas), line = 531
  6143
  6144 347A A9 00			lda #$00
  6145 347C 8D F2 9B			sta BIT
  6146
  6147 347F			l_10CA
  6148 				; --- ForToDoCondition
  6149 347F AD F2 9B			lda BIT
  6150 3482 C9 08			cmp #$08
  6151 3484 90 03 4C 2E 36		jcs l_10D8
  6152
  6153 				; optimize OK (/Users/manuelvio/sviluppo/PETSCII-Boy-3000/pascal/PetsciiBoy3000.pas), line = 532
  6154
  6155 3489 AC F1 9B			ldy ROW
  6156 348C B9 F3 9B			lda adr.CHARDATA,y
  6157 348F 85 1F			sta :STACKORIGIN+9
  6158 3491 A9 07			lda #$07
  6159 3493 38 ED F2 9B			sub BIT
  6160 3497 85 21			sta :STACKORIGIN+11
  6161 3499 A9 00			lda #$00
  6162 349B 85 50			sta :STACKORIGIN+STACKWIDTH*3+10
  6163 349D 85 40			sta :STACKORIGIN+STACKWIDTH*2+10
  6164 349F 85 30			sta :STACKORIGIN+STACKWIDTH+10
  6165 34A1 A9 01			lda #$01
  6166 34A3 A4 21			ldy :STACKORIGIN+11
  6167 34A5 F0 0A			beq l_0003_e
  6168 34A7			l_0003_b
  6169 34A7 0A				asl @
  6170 34A8 26 30			rol :STACKORIGIN+STACKWIDTH+10
  6171 34AA 26 40			rol :STACKORIGIN+STACKWIDTH*2+10
  6172 34AC 26 50			rol :STACKORIGIN+STACKWIDTH*3+10
  6173 34AE 88				dey
  6174 34AF D0 F6			bne l_0003_b
  6175 34B1			l_0003_e
  6176 34B1 25 1F			and :STACKORIGIN+9
  6177 34B3 D0 03 4C 26 36		jeq l_10FB
  6178
  6179 				; optimize OK (/Users/manuelvio/sviluppo/PETSCII-Boy-3000/pascal/PetsciiBoy3000.pas), line = 534
  6180
  6181 34B8 A9 00			lda #$00
  6182 34BA 85 30			sta :STACKORIGIN+STACKWIDTH+10
  6183 34BC AD F1 9B			lda ROW
  6184 34BF 0A				asl @
  6185 34C0 26 30			rol :STACKORIGIN+STACKWIDTH+10
  6186 34C2 18 69 01			add #$01
  6187 34C5 85 06			sta :eax
  6188 34C7 A9 00			lda #$00
  6189 34C9 65 30			adc :STACKORIGIN+STACKWIDTH+10
  6190 34CB 85 07			sta :eax+1
  6191 34CD A9 28			lda #$28
  6192 34CF 85 0E			sta :ecx
  6193 34D1 A9 00			lda #$00
  6194 34D3 85 0F			sta :ecx+1
  6195 					.ifdef fmulinit
  6196 					fmulu_16
  6197 					els
  6198 34D5 20 14 0D			imulCX
  6199 					eif
  6200 34D8 A9 00			lda #$00
  6201 34DA 85 31			sta :STACKORIGIN+STACKWIDTH+11
  6202 34DC AD F2 9B			lda BIT
  6203 34DF 0A				asl @
  6204 34E0 26 31			rol :STACKORIGIN+STACKWIDTH+11
  6205 34E2 18 69 01			add #$01
  6206 34E5 85 20			sta :STACKORIGIN+10
  6207 34E7 A9 00			lda #$00
  6208 34E9 65 31			adc :STACKORIGIN+STACKWIDTH+11
  6209 34EB 85 30			sta :STACKORIGIN+STACKWIDTH+10
  6210 34ED A5 06			lda :eax
  6211 34EF 18 65 20			add :STACKORIGIN+10
  6212 34F2 85 1F			sta :STACKORIGIN+9
  6213 34F4 A5 07			lda :eax+1
  6214 34F6 65 30			adc :STACKORIGIN+STACKWIDTH+10
  6215 34F8 85 2F			sta :STACKORIGIN+STACKWIDTH+9
  6216 34FA A9 00			lda #$00
  6217 34FC 18 65 1F			add :STACKORIGIN+9
  6218 34FF A8				tay
  6219 3500 A9 04			lda #$04
  6220 3502 65 2F			adc :STACKORIGIN+STACKWIDTH+9
  6221 3504 85 03			sta :bp+1
  6222 3506 A9 2A			lda #$2A
  6223 3508 91 02			sta (:bp),y
  6224
  6225 				; optimize OK (/Users/manuelvio/sviluppo/PETSCII-Boy-3000/pascal/PetsciiBoy3000.pas), line = 535
  6226
  6227 350A A9 00			lda #$00
  6228 350C 85 30			sta :STACKORIGIN+STACKWIDTH+10
  6229 350E AD F1 9B			lda ROW
  6230 3511 0A				asl @
  6231 3512 26 30			rol :STACKORIGIN+STACKWIDTH+10
  6232 3514 18 69 01			add #$01
  6233 3517 85 06			sta :eax
  6234 3519 A9 00			lda #$00
  6235 351B 65 30			adc :STACKORIGIN+STACKWIDTH+10
  6236 351D 85 07			sta :eax+1
  6237 351F E6 06			inc :eax
  6238 3521 D0 02			sne
  6239 3523 E6 07			inc :eax+1
  6240 3525 A9 28			lda #$28
  6241 3527 85 0E			sta :ecx
  6242 3529 A9 00			lda #$00
  6243 352B 85 0F			sta :ecx+1
  6244 					.ifdef fmulinit
  6245 					fmulu_16
  6246 					els
  6247 352D 20 14 0D			imulCX
  6248 					eif
  6249 3530 A9 00			lda #$00
  6250 3532 85 31			sta :STACKORIGIN+STACKWIDTH+11
  6251 3534 AD F2 9B			lda BIT
  6252 3537 0A				asl @
  6253 3538 26 31			rol :STACKORIGIN+STACKWIDTH+11
  6254 353A 18 69 01			add #$01
  6255 353D 85 20			sta :STACKORIGIN+10
  6256 353F A9 00			lda #$00
  6257 3541 65 31			adc :STACKORIGIN+STACKWIDTH+11
  6258 3543 85 30			sta :STACKORIGIN+STACKWIDTH+10
  6259 3545 A5 06			lda :eax
  6260 3547 18 65 20			add :STACKORIGIN+10
  6261 354A 85 1F			sta :STACKORIGIN+9
  6262 354C A5 07			lda :eax+1
  6263 354E 65 30			adc :STACKORIGIN+STACKWIDTH+10
  6264 3550 85 2F			sta :STACKORIGIN+STACKWIDTH+9
  6265 3552 A9 00			lda #$00
  6266 3554 18 65 1F			add :STACKORIGIN+9
  6267 3557 A8				tay
  6268 3558 A9 04			lda #$04
  6269 355A 65 2F			adc :STACKORIGIN+STACKWIDTH+9
  6270 355C 85 03			sta :bp+1
  6271 355E A9 2A			lda #$2A
  6272 3560 91 02			sta (:bp),y
  6273
  6274 				; optimize OK (/Users/manuelvio/sviluppo/PETSCII-Boy-3000/pascal/PetsciiBoy3000.pas), line = 536
  6275
  6276 3562 A9 00			lda #$00
  6277 3564 85 30			sta :STACKORIGIN+STACKWIDTH+10
  6278 3566 AD F1 9B			lda ROW
  6279 3569 0A				asl @
  6280 356A 26 30			rol :STACKORIGIN+STACKWIDTH+10
  6281 356C 18 69 01			add #$01
  6282 356F 85 06			sta :eax
  6283 3571 A9 00			lda #$00
  6284 3573 65 30			adc :STACKORIGIN+STACKWIDTH+10
  6285 3575 85 07			sta :eax+1
  6286 3577 A9 28			lda #$28
  6287 3579 85 0E			sta :ecx
  6288 357B A9 00			lda #$00
  6289 357D 85 0F			sta :ecx+1
  6290 					.ifdef fmulinit
  6291 					fmulu_16
  6292 					els
  6293 357F 20 14 0D			imulCX
  6294 					eif
  6295 3582 A9 00			lda #$00
  6296 3584 85 31			sta :STACKORIGIN+STACKWIDTH+11
  6297 3586 AD F2 9B			lda BIT
  6298 3589 0A				asl @
  6299 358A 26 31			rol :STACKORIGIN+STACKWIDTH+11
  6300 358C 18 69 01			add #$01
  6301 358F 85 20			sta :STACKORIGIN+10
  6302 3591 A9 00			lda #$00
  6303 3593 65 31			adc :STACKORIGIN+STACKWIDTH+11
  6304 3595 85 30			sta :STACKORIGIN+STACKWIDTH+10
  6305 3597 A5 20			lda :STACKORIGIN+10
  6306 3599 18 69 01			add #$01
  6307 359C 85 20			sta :STACKORIGIN+10
  6308 359E A5 30			lda :STACKORIGIN+STACKWIDTH+10
  6309 35A0 69 00			adc #$00
  6310 35A2 85 30			sta :STACKORIGIN+STACKWIDTH+10
  6311 35A4 A5 06			lda :eax
  6312 35A6 18 65 20			add :STACKORIGIN+10
  6313 35A9 85 1F			sta :STACKORIGIN+9
  6314 35AB A5 07			lda :eax+1
  6315 35AD 65 30			adc :STACKORIGIN+STACKWIDTH+10
  6316 35AF 85 2F			sta :STACKORIGIN+STACKWIDTH+9
  6317 35B1 A9 00			lda #$00
  6318 35B3 18 65 1F			add :STACKORIGIN+9
  6319 35B6 A8				tay
  6320 35B7 A9 04			lda #$04
  6321 35B9 65 2F			adc :STACKORIGIN+STACKWIDTH+9
  6322 35BB 85 03			sta :bp+1
  6323 35BD A9 2A			lda #$2A
  6324 35BF 91 02			sta (:bp),y
  6325
  6326 				; optimize OK (/Users/manuelvio/sviluppo/PETSCII-Boy-3000/pascal/PetsciiBoy3000.pas), line = 537
  6327
  6328 35C1 A9 00			lda #$00
  6329 35C3 85 30			sta :STACKORIGIN+STACKWIDTH+10
  6330 35C5 AD F1 9B			lda ROW
  6331 35C8 0A				asl @
  6332 35C9 26 30			rol :STACKORIGIN+STACKWIDTH+10
  6333 35CB 18 69 01			add #$01
  6334 35CE 85 06			sta :eax
  6335 35D0 A9 00			lda #$00
  6336 35D2 65 30			adc :STACKORIGIN+STACKWIDTH+10
  6337 35D4 85 07			sta :eax+1
  6338 35D6 E6 06			inc :eax
  6339 35D8 D0 02			sne
  6340 35DA E6 07			inc :eax+1
  6341 35DC A9 28			lda #$28
  6342 35DE 85 0E			sta :ecx
  6343 35E0 A9 00			lda #$00
  6344 35E2 85 0F			sta :ecx+1
  6345 					.ifdef fmulinit
  6346 					fmulu_16
  6347 					els
  6348 35E4 20 14 0D			imulCX
  6349 					eif
  6350 35E7 A9 00			lda #$00
  6351 35E9 85 31			sta :STACKORIGIN+STACKWIDTH+11
  6352 35EB AD F2 9B			lda BIT
  6353 35EE 0A				asl @
  6354 35EF 26 31			rol :STACKORIGIN+STACKWIDTH+11
  6355 35F1 18 69 01			add #$01
  6356 35F4 85 20			sta :STACKORIGIN+10
  6357 35F6 A9 00			lda #$00
  6358 35F8 65 31			adc :STACKORIGIN+STACKWIDTH+11
  6359 35FA 85 30			sta :STACKORIGIN+STACKWIDTH+10
  6360 35FC A5 20			lda :STACKORIGIN+10
  6361 35FE 18 69 01			add #$01
  6362 3601 85 20			sta :STACKORIGIN+10
  6363 3603 A5 30			lda :STACKORIGIN+STACKWIDTH+10
  6364 3605 69 00			adc #$00
  6365 3607 85 30			sta :STACKORIGIN+STACKWIDTH+10
  6366 3609 A5 06			lda :eax
  6367 360B 18 65 20			add :STACKORIGIN+10
  6368 360E 85 1F			sta :STACKORIGIN+9
  6369 3610 A5 07			lda :eax+1
  6370 3612 65 30			adc :STACKORIGIN+STACKWIDTH+10
  6371 3614 85 2F			sta :STACKORIGIN+STACKWIDTH+9
  6372 3616 A9 00			lda #$00
  6373 3618 18 65 1F			add :STACKORIGIN+9
  6374 361B A8				tay
  6375 361C A9 04			lda #$04
  6376 361E 65 2F			adc :STACKORIGIN+STACKWIDTH+9
  6377 3620 85 03			sta :bp+1
  6378 3622 A9 2A			lda #$2A
  6379 3624 91 02			sta (:bp),y
  6380 3626			l_10FB
  6381
  6382 				; --- ForToDoEpilog
  6383 3626 EE F2 9B			inc BIT
  6384 3629 F0 03 4C 7F 34		jne l_10CA
  6385 362E			l_10D8
  6386
  6387 				; --- ForToDoEpilog
  6388 362E EE F1 9B			inc ROW
  6389 3631 F0 03 4C 70 34		jne l_10B3
  6390 3636			l_10C1
  6391
  6392 				; ------------------------------------------------------------
  6393
  6394 = 9CB9			DIGIT	= DATAORIGIN+$5ED8
  6395
  6396 = 9CB9			@VarData	= DIGIT
  6397 = 0001			@VarDataSize	= 1
  6398
  6399 3636			@exit
  6400 					.ifdef @new
  6401 					lda <@VarData
  6402 					sta :ztmp
  6403 					lda >@VarData
  6404 					ldy #@VarDataSize-1
  6405 					jmp @FreeMem
  6406 					els
  6407 3636 60				rts						; ret
  6408 					eif
  6409 				.endl
  6410
  6411 3637			.local	DRAWANDPREDICT					; PROCEDURE
  6412
  6413 				; optimize OK (/Users/manuelvio/sviluppo/PETSCII-Boy-3000/pascal/PetsciiBoy3000.pas), line = 550
  6414
  6415 3637 A9 00			lda #$00
  6416 3639 8D BC 9C			sta DONE
  6417
  6418 				; optimize OK (/Users/manuelvio/sviluppo/PETSCII-Boy-3000/pascal/PetsciiBoy3000.pas), line = 551
  6419
  6420 363C A9 01			lda #$01
  6421 363E 8D 9C 9C			sta CLEARSCREENAREA.X1
  6422 3641 8D 9D 9C			sta CLEARSCREENAREA.Y1
  6423 3644 A9 10			lda #$10
  6424 3646 8D 9E 9C			sta CLEARSCREENAREA.X2
  6425 3649 8D 9F 9C			sta CLEARSCREENAREA.Y2
  6426 364C 20 36 31			jsr CLEARSCREENAREA
  6427
  6428 				; optimize FAIL ('ENABLECURSOR', /Users/manuelvio/sviluppo/PETSCII-Boy-3000/pascal/PetsciiBoy3000.pas), line = 552
  6429
  6430 364F 20 4E 2C			jsr ENABLECURSOR
  6431
  6432 				; --- RepeatUntilProlog
  6433 3652			l_11AB
  6434
  6435 				; optimize OK (/Users/manuelvio/sviluppo/PETSCII-Boy-3000/pascal/PetsciiBoy3000.pas), line = 554
  6436
  6437 3652 AD FB 9B			lda INPUTMODE
  6438 3655 D0 20			jne l_11BD
  6439
  6440 				; optimize FAIL ('JOYSTICK.READJOYSTICK2', /Users/manuelvio/sviluppo/PETSCII-Boy-3000/pascal/PetsciiBoy3000.pas), line = 556
  6441
  6442 3657 20 94 29			jsr JOYSTICK.READJOYSTICK2
  6443
  6444 				; optimize OK (/Users/manuelvio/sviluppo/PETSCII-Boy-3000/pascal/PetsciiBoy3000.pas), line = 557
  6445
  6446 365A AD ED 9B			lda CURSORY
  6447 365D 18 6D 8B 7E			add JOYSTICK.INPUTDY
  6448 3661 8D FD 9B			sta MOVECURSOR.Y
  6449 3664 AD EC 9B			lda CURSORX
  6450 3667 18 6D 8A 7E			add JOYSTICK.INPUTDX
  6451 366B 8D FC 9B			sta MOVECURSOR.X
  6452 366E 20 FD 2A			jsr MOVECURSOR
  6453
  6454 				; optimize OK (/Users/manuelvio/sviluppo/PETSCII-Boy-3000/pascal/PetsciiBoy3000.pas), line = 558
  6455
  6456 3671 AD 8E 7E			lda JOYSTICK.BUTTONPRESSED
  6457 3674 4C C9 36			jmp l_11DF
  6458 3677			l_11BD
  6459
  6460 				; optimize OK (/Users/manuelvio/sviluppo/PETSCII-Boy-3000/pascal/PetsciiBoy3000.pas), line = 560
  6461
  6462 3677 AD FB 9B			lda INPUTMODE
  6463 367A C9 01			cmp #$01
  6464 367C D0 4E			jne l_11F1
  6465
  6466 				; optimize OK (/Users/manuelvio/sviluppo/PETSCII-Boy-3000/pascal/PetsciiBoy3000.pas), line = 562
  6467
  6468 367E AD EC 9B			lda CURSORX
  6469 3681 8D EE 9B			sta OLDCURSORX
  6470
  6471 				; optimize OK (/Users/manuelvio/sviluppo/PETSCII-Boy-3000/pascal/PetsciiBoy3000.pas), line = 563
  6472
  6473 3684 AD ED 9B			lda CURSORY
  6474 3687 8D EF 9B			sta OLDCURSORY
  6475
  6476 				; optimize FAIL ('LIGHTPEN.CHECKPEN', /Users/manuelvio/sviluppo/PETSCII-Boy-3000/pascal/PetsciiBoy3000.pas), line = 564
  6477
  6478 368A 20 F9 29			jsr LIGHTPEN.CHECKPEN
  6479
  6480 				; optimize OK (/Users/manuelvio/sviluppo/PETSCII-Boy-3000/pascal/PetsciiBoy3000.pas), line = 565
  6481
  6482 368D AC A7 7E			ldy LIGHTPEN.PENCHARX
  6483 3690 88				dey
  6484 3691 8C EC 9B			sty CURSORX
  6485
  6486 				; optimize OK (/Users/manuelvio/sviluppo/PETSCII-Boy-3000/pascal/PetsciiBoy3000.pas), line = 566
  6487
  6488 3694 AC A8 7E			ldy LIGHTPEN.PENCHARY
  6489 3697 88				dey
  6490 3698 8C ED 9B			sty CURSORY
  6491
  6492 				; optimize OK (/Users/manuelvio/sviluppo/PETSCII-Boy-3000/pascal/PetsciiBoy3000.pas), line = 567
  6493
  6494 369B AD EC 9B			lda CURSORX
  6495 369E 8D FC 9B			sta MOVECURSOR.X
  6496 36A1 AD ED 9B			lda CURSORY
  6497 36A4 8D FD 9B			sta MOVECURSOR.Y
  6498 36A7 20 FD 2A			jsr MOVECURSOR
  6499
  6500 				; optimize OK (/Users/manuelvio/sviluppo/PETSCII-Boy-3000/pascal/PetsciiBoy3000.pas), line = 568
  6501
  6502 36AA AD EC 9B			lda CURSORX
  6503 36AD CD EE 9B			cmp OLDCURSORX
  6504 36B0 F0 03			seq
  6505 36B2 4C C4 36			jmp @+
  6506 36B5 AD ED 9B			lda CURSORY
  6507 36B8 CD EF 9B			cmp OLDCURSORY
  6508 36BB F0 03			seq
  6509 36BD 4C C4 36			jmp @+
  6510 36C0 A9 00 F0 02			lda:seq #$00
  6511 36C4 A9 01		@	lda #$01
  6512 36C6 8D F0 9B			sta CURSORMOVED
  6513
  6514 				; optimize OK (/Users/manuelvio/sviluppo/PETSCII-Boy-3000/pascal/PetsciiBoy3000.pas), line = 569
  6515
  6516 36C9			l_11DF
  6517 36C9 20 D4 2B			jsr TOGGLEPIXEL
  6518 36CC			l_11F1
  6519
  6520 				; optimize FAIL ('CRT.KEYPRESSED', /Users/manuelvio/sviluppo/PETSCII-Boy-3000/pascal/PetsciiBoy3000.pas), line = 571
  6521
  6522 36CC 20 06 19			jsr CRT.KEYPRESSED
  6523 36CF AD 33 3E			lda CRT.KEYPRESSED.RESULT
  6524 36D2 F0 4B			jeq l_1246
  6525
  6526 				; optimize FAIL ('CRT.READKEY', /Users/manuelvio/sviluppo/PETSCII-Boy-3000/pascal/PetsciiBoy3000.pas), line = 573
  6527
  6528 36D4 20 F8 18			jsr CRT.READKEY
  6529 36D7 AD 32 3E			lda CRT.READKEY.RESULT
  6530 36DA 8D BA 9C			sta C
  6531
  6532 				; optimize OK (/Users/manuelvio/sviluppo/PETSCII-Boy-3000/pascal/PetsciiBoy3000.pas), line = 574
  6533
  6534 36DD 8D BE 9C			sta @CASETMP_0007
  6535 36E0 C9 A5			cmp #$A5
  6536 36E2 D0 0D			jne l_1256
  6537 				@
  6538
  6539 				; optimize OK (/Users/manuelvio/sviluppo/PETSCII-Boy-3000/pascal/PetsciiBoy3000.pas), line = 575
  6540
  6541 36E4 A9 00			lda #$00
  6542 36E6 8D FB 9B			sta INPUTMODE
  6543 36E9 E8				inx
  6544 36EA A9 0F 95 16			mva #$0F :STACKORIGIN,x
  6545 36EE 4C FF 36			jmp s_1269
  6546 36F1			l_1256
  6547 36F1 C9 A9			cmp #$A9
  6548 36F3 D0 14			jne l_1263
  6549
  6550 				; optimize OK (/Users/manuelvio/sviluppo/PETSCII-Boy-3000/pascal/PetsciiBoy3000.pas), line = 576
  6551
  6552 36F5 A9 01			lda #$01
  6553 36F7 8D FB 9B			sta INPUTMODE
  6554 36FA E8				inx
  6555 36FB A9 24 95 16			mva #$24 :STACKORIGIN,x
  6556 36FF			s_1269
  6557 36FF A9 0A 95 26			mva #$0A :STACKORIGIN+STACKWIDTH,x
  6558 3703 20 6B 2C			jsr LOG.@0101898600000021
  6559 3706 4C 1F 37			jmp a_0007
  6560 3709			l_1263
  6561 3709 C9 A7			cmp #$A7
  6562 370B D0 12			jne l_1270
  6563
  6564 				; optimize FAIL ('CONFIRM', /Users/manuelvio/sviluppo/PETSCII-Boy-3000/pascal/PetsciiBoy3000.pas), line = 577
  6565
  6566 370D E8				inx
  6567 370E A9 3A 95 16			mva #$3A :STACKORIGIN,x
  6568 3712 A9 0A 95 26			mva #$0A :STACKORIGIN+STACKWIDTH,x
  6569 3716 20 3B 2D			jsr CONFIRM
  6570 3719 AD 68 9C			lda CONFIRM.RESULT
  6571 371C 8D BC 9C			sta DONE
  6572 371F			l_1270
  6573 371F			a_0007
  6574 371F			l_1246
  6575
  6576 				; optimize OK (/Users/manuelvio/sviluppo/PETSCII-Boy-3000/pascal/PetsciiBoy3000.pas), line = 580
  6577
  6578 371F A9 05			lda #$05
  6579 3721 8D 2C 3E			sta SYSTEM.PAUSE.@010181000.N
  6580 3724 A9 00			lda #$00
  6581 3726 8D 2D 3E			sta SYSTEM.PAUSE.@010181000.N+1
  6582 3729 20 66 18			jsr SYSTEM.PAUSE.@010181000
  6583
  6584 				; optimize OK (/Users/manuelvio/sviluppo/PETSCII-Boy-3000/pascal/PetsciiBoy3000.pas), line = 581
  6585
  6586 372C AD BC 9C			lda DONE
  6587 372F D0 03 4C 52 36		jeq l_11AB
  6588
  6589 				; optimize FAIL ('DISABLECURSOR', /Users/manuelvio/sviluppo/PETSCII-Boy-3000/pascal/PetsciiBoy3000.pas), line = 582
  6590
  6591 3734 20 62 2C			jsr DISABLECURSOR
  6592
  6593 				; optimize OK (/Users/manuelvio/sviluppo/PETSCII-Boy-3000/pascal/PetsciiBoy3000.pas), line = 583
  6594
  6595 3737 AD 1F 3D			lda CURRINPUT
  6596 373A 8D AD 9C			sta CANVASTOINPUT.INPUT
  6597 373D AD 20 3D			lda CURRINPUT+1
  6598 3740 8D AE 9C			sta CANVASTOINPUT.INPUT+1
  6599 3743 20 D8 31			jsr CANVASTOINPUT
  6600
  6601 				; optimize OK (/Users/manuelvio/sviluppo/PETSCII-Boy-3000/pascal/PetsciiBoy3000.pas), line = 584
  6602
  6603 3746 AD 1F 3D			lda CURRINPUT
  6604 3749 8D 93 9C			sta DRAWDIGIT.INPUT
  6605 374C AD 20 3D			lda CURRINPUT+1
  6606 374F 8D 94 9C			sta DRAWDIGIT.INPUT+1
  6607 3752 20 59 30			jsr DRAWDIGIT
  6608
  6609 				; optimize OK (/Users/manuelvio/sviluppo/PETSCII-Boy-3000/pascal/PetsciiBoy3000.pas), line = 585
  6610
  6611 3755 AD 1F 3D			lda CURRINPUT
  6612 3758 8D 69 7E			sta NEURALNET.PREDICT.INPUT
  6613 375B AD 20 3D			lda CURRINPUT+1
  6614 375E 8D 6A 7E			sta NEURALNET.PREDICT.INPUT+1
  6615 3761 20 CB 1F			jsr NEURALNET.PREDICT
  6616 3764 AD 6B 7E			lda NEURALNET.PREDICT.RESULT
  6617 3767 8D BB 9C			sta GUESSEDDIGIT
  6618
  6619 				; optimize FAIL ('DRAWHIDDENACTIVATIONS', /Users/manuelvio/sviluppo/PETSCII-Boy-3000/pascal/PetsciiBoy3000.pas), line = 586
  6620
  6621 376A 20 9F 32			jsr DRAWHIDDENACTIVATIONS
  6622
  6623 				; optimize FAIL ('DRAWOUTPUTACTIVATIONS', /Users/manuelvio/sviluppo/PETSCII-Boy-3000/pascal/PetsciiBoy3000.pas), line = 587
  6624
  6625 376D 20 4F 33			jsr DRAWOUTPUTACTIVATIONS
  6626
  6627 				; optimize OK (/Users/manuelvio/sviluppo/PETSCII-Boy-3000/pascal/PetsciiBoy3000.pas), line = 588
  6628
  6629 3770 AD BB 9C			lda GUESSEDDIGIT
  6630 3773 20 FF 33			jsr DISPLAYCHAR
  6631
  6632 				; optimize OK (/Users/manuelvio/sviluppo/PETSCII-Boy-3000/pascal/PetsciiBoy3000.pas), line = 589
  6633
  6634 3776 AD BB 9C			lda GUESSEDDIGIT
  6635 3779 20 46 19			jsr SYSUTILS.BYTETOSTR
  6636 377C E8				inx
  6637 377D AC 8A 19 84 04 AC + 	mwy SYSUTILS.BYTETOSTR.RESULT :bp2
  6638 3787 A0 00			ldy #$00
  6639 3789 B1 04 99 AE 3F C8 + 	mva:rne (:bp2),y STRINGUTILS.STRCAT.@020189860000010001898600000100.adr.S2,y+
  6640 3791 E8				inx
  6641 3792 A0 00			ldy #$00
  6642 3794 B9 4E 0A 99 AE 3E + 	mva:rne $0A4E,y STRINGUTILS.STRCAT.@020189860000010001898600000100.adr.S1,y+
  6643 379D 20 48 1A			jsr STRINGUTILS.STRCAT.@020189860000010001898600000100
  6644 37A0 E8				inx
  6645 37A1 AD D5 1A 95 16		mva STRINGUTILS.STRCAT.@020189860000010001898600000100.RESULT :STACKORIGIN,x
  6646 37A6 AD D6 1A 95 26		mva STRINGUTILS.STRCAT.@020189860000010001898600000100.RESULT+1 :STACKORIGIN+STACKWIDTH,x
  6647 37AB 20 6B 2C			jsr LOG.@0101898600000021
  6648
  6649 				; optimize FAIL ('CONFIRM', /Users/manuelvio/sviluppo/PETSCII-Boy-3000/pascal/PetsciiBoy3000.pas), line = 590
  6650
  6651 37AE E8				inx
  6652 37AF A9 63 95 16			mva #$63 :STACKORIGIN,x
  6653 37B3 A9 0A 95 26			mva #$0A :STACKORIGIN+STACKWIDTH,x
  6654 37B7 20 3B 2D			jsr CONFIRM
  6655 37BA AD 68 9C			lda CONFIRM.RESULT
  6656 37BD D0 34			jne l_12AD
  6657
  6658 				; --- RepeatUntilProlog
  6659 37BF			l_12AF
  6660
  6661 				; optimize FAIL ('LOG.@0101898600000021', /Users/manuelvio/sviluppo/PETSCII-Boy-3000/pascal/PetsciiBoy3000.pas), line = 593
  6662
  6663 37BF E8				inx
  6664 37C0 A9 75 95 16			mva #$75 :STACKORIGIN,x
  6665 37C4 A9 0A 95 26			mva #$0A :STACKORIGIN+STACKWIDTH,x
  6666 37C8 20 6B 2C			jsr LOG.@0101898600000021
  6667
  6668 				; --- RepeatUntilProlog
  6669 37CB			l_12B2
  6670
  6671 				; optimize FAIL ('CRT.KEYPRESSED', /Users/manuelvio/sviluppo/PETSCII-Boy-3000/pascal/PetsciiBoy3000.pas), line = 594
  6672
  6673 37CB 20 06 19			jsr CRT.KEYPRESSED
  6674 37CE AD 33 3E			lda CRT.KEYPRESSED.RESULT
  6675 37D1 F0 F8			jeq l_12B2
  6676
  6677 				; optimize FAIL ('CRT.READKEY', /Users/manuelvio/sviluppo/PETSCII-Boy-3000/pascal/PetsciiBoy3000.pas), line = 595
  6678
  6679 37D3 20 F8 18			jsr CRT.READKEY
  6680 37D6 AD 32 3E			lda CRT.READKEY.RESULT
  6681 37D9 20 C6 19			jsr SYSUTILS.STRTOINT.@010286000
  6682 37DC AD 80 3E			lda SYSUTILS.STRTOINT.@010286000.RESULT
  6683 37DF 8D BB 9C			sta GUESSEDDIGIT
  6684
  6685 				; optimize OK (/Users/manuelvio/sviluppo/PETSCII-Boy-3000/pascal/PetsciiBoy3000.pas), line = 596
  6686
  6687 37E2 F0 08			jeq l_12D4s
  6688 37E4 C9 09			cmp #$09
  6689 37E6 B0 04			jcs l_12D4s
  6690 37E8 A9 01 D0 02			lda:sne #$01
  6691 37EC A9 00		l_12D4s	lda #$00
  6692 37EE 8D BD 9C			sta ISNUMBER
  6693
  6694 				; optimize OK (/Users/manuelvio/sviluppo/PETSCII-Boy-3000/pascal/PetsciiBoy3000.pas), line = 597
  6695
  6696 37F1 F0 CC			jeq l_12AF
  6697 37F3			l_12AD
  6698
  6699 				; optimize FAIL ('LOG.@0101898600000021', /Users/manuelvio/sviluppo/PETSCII-Boy-3000/pascal/PetsciiBoy3000.pas), line = 599
  6700
  6701 37F3 E8				inx
  6702 37F4 A9 8E 95 16			mva #$8E :STACKORIGIN,x
  6703 37F8 A9 0A 95 26			mva #$0A :STACKORIGIN+STACKWIDTH,x
  6704 37FC 20 6B 2C			jsr LOG.@0101898600000021
  6705
  6706 				; optimize OK (/Users/manuelvio/sviluppo/PETSCII-Boy-3000/pascal/PetsciiBoy3000.pas), line = 600
  6707
  6708 37FF AD 1F 3D			lda CURRINPUT
  6709 3802 8D 77 7E			sta NEURALNET.TRAIN.INPUT
  6710 3805 AD 20 3D			lda CURRINPUT+1
  6711 3808 8D 78 7E			sta NEURALNET.TRAIN.INPUT+1
  6712 380B AD BB 9C			lda GUESSEDDIGIT
  6713 380E 8D 79 7E			sta NEURALNET.TRAIN.OUTPUT
  6714 3811 20 DC 22			jsr NEURALNET.TRAIN
  6715
  6716 				; ------------------------------------------------------------
  6717
  6718 = 9CBA			C	= DATAORIGIN+$5ED9
  6719 = 9CBB			GUESSEDDIGIT	= DATAORIGIN+$5EDA
  6720 = 9CBC			DONE	= DATAORIGIN+$5EDB
  6721 = 9CBD			ISNUMBER	= DATAORIGIN+$5EDC
  6722 = 9CBE			@CASETMP_0007	= DATAORIGIN+$5EDD
  6723
  6724 = 9CBA			@VarData	= C
  6725 = 0005			@VarDataSize	= 5
  6726
  6727 3814			@exit
  6728 					.ifdef @new
  6729 					lda <@VarData
  6730 					sta :ztmp
  6731 					lda >@VarData
  6732 					ldy #@VarDataSize-1
  6733 					jmp @FreeMem
  6734 					els
  6735 3814 60				rts						; ret
  6736 					eif
  6737 				.endl
  6738
  6739 3815			.local	TRAINLOOP					; PROCEDURE
  6740 3815 8D BF 9C			sta EPOCHS
  6741
  6742 				; optimize FAIL ('LOG.@0101898600000021', /Users/manuelvio/sviluppo/PETSCII-Boy-3000/pascal/PetsciiBoy3000.pas), line = 615
  6743
  6744 3818 E8				inx
  6745 3819 A9 A3 95 16			mva #$A3 :STACKORIGIN,x
  6746 381D A9 0A 95 26			mva #$0A :STACKORIGIN+STACKWIDTH,x
  6747 3821 20 6B 2C			jsr LOG.@0101898600000021
  6748
  6749 				; optimize FAIL ('LOG.@0101898600000021', /Users/manuelvio/sviluppo/PETSCII-Boy-3000/pascal/PetsciiBoy3000.pas), line = 616
  6750
  6751 3824 E8				inx
  6752 3825 A9 BE 95 16			mva #$BE :STACKORIGIN,x
  6753 3829 A9 0A 95 26			mva #$0A :STACKORIGIN+STACKWIDTH,x
  6754 382D 20 6B 2C			jsr LOG.@0101898600000021
  6755
  6756 				; optimize FAIL ('LOG.@0101898600000021', /Users/manuelvio/sviluppo/PETSCII-Boy-3000/pascal/PetsciiBoy3000.pas), line = 617
  6757
  6758 3830 E8				inx
  6759 3831 A9 D0 95 16			mva #$D0 :STACKORIGIN,x
  6760 3835 A9 0A 95 26			mva #$0A :STACKORIGIN+STACKWIDTH,x
  6761 3839 20 6B 2C			jsr LOG.@0101898600000021
  6762
  6763 				; optimize FAIL ('NEURALNET.INITNETWORK', /Users/manuelvio/sviluppo/PETSCII-Boy-3000/pascal/PetsciiBoy3000.pas), line = 618
  6764
  6765 383C 20 E8 1D			jsr NEURALNET.INITNETWORK
  6766
  6767 				; optimize OK (/Users/manuelvio/sviluppo/PETSCII-Boy-3000/pascal/PetsciiBoy3000.pas), line = 619
  6768
  6769 383F A9 39			lda #$39
  6770 3841 85 0E			sta :ecx
  6771 3843 A9 06			lda #$06
  6772 3845 85 0F			sta :ecx+1
  6773 3847 AD BF 9C			lda EPOCHS
  6774 384A 85 06			sta :eax
  6775 384C A9 00			lda #$00
  6776 384E 85 07			sta :eax+1
  6777 					.ifdef fmulinit
  6778 					fmulu_16
  6779 					els
  6780 3850 20 58 0D			imulCX_AL
  6781 					eif
  6782 3853 A5 06			lda :eax
  6783 3855 8D C2 9C			sta TOTAL
  6784 3858 A5 07			lda :eax+1
  6785 385A 8D C3 9C			sta TOTAL+1
  6786
  6787 				; optimize OK (/Users/manuelvio/sviluppo/PETSCII-Boy-3000/pascal/PetsciiBoy3000.pas), line = 620
  6788
  6789 385D A9 00			lda #$00
  6790 385F 8D AE 7E			sta EPOCH
  6791 3862 AC BF 9C			ldy EPOCHS
  6792 3865 88				dey
  6793 3866 8C 6A 38			sty @FORTMP_1306_0
  6794
  6795 3869			l_1309
  6796 				; --- ForToDoCondition
  6797 3869 A9 00			lda @FORTMP_1306_0::#$00
  6798 386B CD AE 7E			cmp EPOCH
  6799 386E B0 03 4C FD 3B		jcc l_1317
  6800
  6801 				; optimize OK (/Users/manuelvio/sviluppo/PETSCII-Boy-3000/pascal/PetsciiBoy3000.pas), line = 622
  6802
  6803 3873 AD C4 9C			lda STOP
  6804 3876 F0 03			jeq l_1323
  6805 3878 4C FD 3B			jmp b_1309
  6806 387B			l_1323
  6807
  6808 				; optimize FAIL ('SHUFFLEBATCHINDEXES', /Users/manuelvio/sviluppo/PETSCII-Boy-3000/pascal/PetsciiBoy3000.pas), line = 623
  6809
  6810 387B 20 F0 30			jsr SHUFFLEBATCHINDEXES
  6811
  6812 				; optimize OK (/Users/manuelvio/sviluppo/PETSCII-Boy-3000/pascal/PetsciiBoy3000.pas), line = 624
  6813
  6814 387E A9 00			lda #$00
  6815 3880 8D E9 8B			sta CORRECT
  6816 3883 8D EA 8B			sta CORRECT+1
  6817 3886 8D C0 9C			sta PROCESSED
  6818 3889 8D C1 9C			sta PROCESSED+1
  6819
  6820 				; optimize FAIL (0, /Users/manuelvio/sviluppo/PETSCII-Boy-3000/pascal/PetsciiBoy3000.pas), line = 625
  6821
  6822 388C A9 F0			lda #-16
  6823 388E 8D 92 38			sta l_1330+1
  6824 3891			l_1330
  6825 3891 A0 00			ldy #$00
  6826 3893 B9 C7 8A			lda adr.BATCHINDEXES+16-256,y
  6827 3896 8D C7 8B			sta BATCHIDX
  6828
  6829 				; optimize OK (/Users/manuelvio/sviluppo/PETSCII-Boy-3000/pascal/PetsciiBoy3000.pas), line = 627
  6830
  6831 3899 AD C4 9C			lda STOP
  6832 389C F0 03			jeq l_133C
  6833 389E 4C F5 3B			jmp b_1330
  6834 38A1			l_133C
  6835
  6836 				; optimize OK (/Users/manuelvio/sviluppo/PETSCII-Boy-3000/pascal/PetsciiBoy3000.pas), line = 628
  6837
  6838 38A1 AD C7 8B			lda BATCHIDX
  6839 38A4 85 0A			sta SYSUTILS.INTTOHEX.VALUE
  6840 38A6 A9 00			lda #$00
  6841 38A8 85 0B			sta SYSUTILS.INTTOHEX.VALUE+1
  6842 38AA 85 0C			sta SYSUTILS.INTTOHEX.VALUE+2
  6843 38AC 85 0D			sta SYSUTILS.INTTOHEX.VALUE+3
  6844 38AE A9 02			lda #$02
  6845 38B0 85 0E			sta SYSUTILS.INTTOHEX.DIGITS
  6846 38B2 20 E1 19			jsr SYSUTILS.INTTOHEX
  6847 38B5 E8				inx
  6848 38B6 AC F0 19 84 04 AC + 	mwy SYSUTILS.INTTOHEX.RESULT :bp2
  6849 38C0 A0 00			ldy #$00
  6850 38C2 B1 04 99 AE 3F C8 + 	mva:rne (:bp2),y STRINGUTILS.STRCAT.@020189860000010001898600000100.adr.S2,y+
  6851 38CA E8				inx
  6852 38CB A0 00			ldy #$00
  6853 38CD B9 E0 0A 99 AE 3E + 	mva:rne $0AE0,y STRINGUTILS.STRCAT.@020189860000010001898600000100.adr.S1,y+
  6854 38D6 20 48 1A			jsr STRINGUTILS.STRCAT.@020189860000010001898600000100
  6855 38D9 E8				inx
  6856 38DA AD D5 1A			lda STRINGUTILS.STRCAT.@020189860000010001898600000100.RESULT
  6857 38DD 85 0A			sta @move.src
  6858 38DF AD D6 1A			lda STRINGUTILS.STRCAT.@020189860000010001898600000100.RESULT+1
  6859 38E2 85 0B			sta @move.src+1
  6860 					@moveSTRING BATCHNAME #32
  6860 				 MWA BATCHNAME @MOVE.DST\ MVA #32 @MOVESTRING.LEN\ JSR @MOVESTRING
  6860 38E4 AD 23 3D 85 0E AD +  MWA BATCHNAME @MOVE.DST
  6860 38EE A9 20 8D B1 0C	 MVA #32 @MOVESTRING.LEN
  6860 38F3 20 AA 0C		 JSR @MOVESTRING
  6861
  6862 				; optimize FAIL ('STRINGUTILS.STRCAT.@020189860000010001898600000100', /Users/manuelvio/sviluppo/PETSCII-Boy-3000/pascal/PetsciiBoy3000.pas), line = 629
  6863
  6864 38F6 A0 00			ldy #$00
  6865 38F8 B9 E7 0A 99 AE 3F + 	mva:rne $0AE7,y STRINGUTILS.STRCAT.@020189860000010001898600000100.adr.S2,y+
  6866 3901 E8				inx
  6867 3902 AC 23 3D 84 04 AC + 	mwy BATCHNAME :bp2
  6868 390C A0 00			ldy #$00
  6869 390E B1 04 99 AE 3E C8 + 	mva:rne (:bp2),y STRINGUTILS.STRCAT.@020189860000010001898600000100.adr.S1,y+
  6870 3916 20 48 1A			jsr STRINGUTILS.STRCAT.@020189860000010001898600000100
  6871 3919 E8				inx
  6872 391A AD D5 1A			lda STRINGUTILS.STRCAT.@020189860000010001898600000100.RESULT
  6873 391D 85 0A			sta @move.src
  6874 391F AD D6 1A			lda STRINGUTILS.STRCAT.@020189860000010001898600000100.RESULT+1
  6875 3922 85 0B			sta @move.src+1
  6876 					@moveSTRING BATCHNAME #32
  6876 				 MWA BATCHNAME @MOVE.DST\ MVA #32 @MOVESTRING.LEN\ JSR @MOVESTRING
  6876 3924 AD 23 3D 85 0E AD +  MWA BATCHNAME @MOVE.DST
  6876 392E A9 20 8D B1 0C	 MVA #32 @MOVESTRING.LEN
  6876 3933 20 AA 0C		 JSR @MOVESTRING
  6877
  6878 				; optimize FAIL ('LOADTRAININGBATCH', /Users/manuelvio/sviluppo/PETSCII-Boy-3000/pascal/PetsciiBoy3000.pas), line = 630
  6879
  6880 3936 AD 1D 3D 95 16		mva BATCH :STACKORIGIN,x
  6881 393B AD 1E 3D 95 26		mva BATCH+1 :STACKORIGIN+STACKWIDTH,x
  6882 3940 E8				inx
  6883 3941 A9 08 95 16			mva #$08 :STACKORIGIN,x
  6884 3945 E8				inx
  6885 3946 AC 23 3D 84 04 AC + 	mwy BATCHNAME :bp2
  6886 3950 A0 10			ldy #$10
  6887 3952 B1 04 99 7B 9C 88 + 	mva:rpl (:bp2),y LOADTRAININGBATCH.adr.FILENAME,y-
  6888 395A 20 E5 2D			jsr LOADTRAININGBATCH
  6889
  6890 				; optimize OK (/Users/manuelvio/sviluppo/PETSCII-Boy-3000/pascal/PetsciiBoy3000.pas), line = 633
  6891
  6892 395D A9 00			lda #$00
  6893 395F 8D B0 7E			sta J
  6894 3962 AC 56 7E			ldy NEURALNET.BATCHLENGTH
  6895 3965 88				dey
  6896 3966 8C 6A 39			sty @FORTMP_135C_0
  6897
  6898 3969			l_135F
  6899 				; --- ForToDoCondition
  6900 3969 A9 00			lda @FORTMP_135C_0::#$00
  6901 396B CD B0 7E			cmp J
  6902 396E B0 03 4C 5E 3A		jcc l_136D
  6903
  6904 				; optimize FAIL ('CRT.KEYPRESSED', /Users/manuelvio/sviluppo/PETSCII-Boy-3000/pascal/PetsciiBoy3000.pas), line = 635
  6905
  6906 3973 20 06 19			jsr CRT.KEYPRESSED
  6907 3976 AD 33 3E			lda CRT.KEYPRESSED.RESULT
  6908 3979 F0 12			jeq l_1377
  6909
  6910 				; optimize FAIL ('CONFIRM', /Users/manuelvio/sviluppo/PETSCII-Boy-3000/pascal/PetsciiBoy3000.pas), line = 636
  6911
  6912 397B E8				inx
  6913 397C A9 EC 95 16			mva #$EC :STACKORIGIN,x
  6914 3980 A9 0A 95 26			mva #$0A :STACKORIGIN+STACKWIDTH,x
  6915 3984 20 3B 2D			jsr CONFIRM
  6916 3987 AD 68 9C			lda CONFIRM.RESULT
  6917 398A 8D C4 9C			sta STOP
  6918 398D			l_1377
  6919
  6920 				; optimize OK (/Users/manuelvio/sviluppo/PETSCII-Boy-3000/pascal/PetsciiBoy3000.pas), line = 637
  6921
  6922 398D AD C4 9C			lda STOP
  6923 3990 F0 03			jeq l_138B
  6924 3992 4C 5E 3A			jmp b_135F
  6925 3995			l_138B
  6926
  6927 				; optimize OK (/Users/manuelvio/sviluppo/PETSCII-Boy-3000/pascal/PetsciiBoy3000.pas), line = 639
  6928
  6929 3995 A9 00			lda #$00
  6930 3997 8D AF 7E			sta I
  6931
  6932 399A			l_1397
  6933 				; --- ForToDoCondition
  6934 399A AD AF 7E			lda I
  6935 399D C9 20			cmp #$20
  6936 399F B0 28			jcs l_13A5
  6937
  6938 				; optimize OK (/Users/manuelvio/sviluppo/PETSCII-Boy-3000/pascal/PetsciiBoy3000.pas), line = 640
  6939
  6940 39A1 85 0E			sta :ecx
  6941 39A3 A9 64			lda #$64
  6942 39A5 85 06			sta :eax
  6943 					.ifdef fmulinit
  6944 					fmulu_8
  6945 					els
  6946 39A7 20 E9 0C			imulCL
  6947 					eif
  6948 39AA A5 06			lda :eax
  6949 39AC 18 6D 1D 3D			add BATCH
  6950 39B0 85 04			sta :bp2
  6951 39B2 A5 07			lda :eax+1
  6952 39B4 6D 1E 3D			adc BATCH+1
  6953 39B7 85 05			sta :bp2+1
  6954 39B9 AC B0 7E			ldy J
  6955 39BC B1 04			lda (:bp2),y
  6956 39BE AC AF 7E			ldy I
  6957 39C1 99 97 8B			sta adr.CURRINPUT,y
  6958
  6959 				; --- ForToDoEpilog
  6960 39C4 EE AF 7E			inc I
  6961 39C7 D0 D1			jne l_1397
  6962 39C9			l_13A5
  6963
  6964 				; optimize OK (/Users/manuelvio/sviluppo/PETSCII-Boy-3000/pascal/PetsciiBoy3000.pas), line = 641
  6965
  6966 39C9 AD 1F 3D			lda CURRINPUT
  6967 39CC 8D 93 9C			sta DRAWDIGIT.INPUT
  6968 39CF AD 20 3D			lda CURRINPUT+1
  6969 39D2 8D 94 9C			sta DRAWDIGIT.INPUT+1
  6970 39D5 20 59 30			jsr DRAWDIGIT
  6971
  6972 				; optimize OK (/Users/manuelvio/sviluppo/PETSCII-Boy-3000/pascal/PetsciiBoy3000.pas), line = 642
  6973
  6974 39D8 A9 80			lda #$80
  6975 39DA 18 6D B0 7E			add J
  6976 39DE 85 1F			sta :STACKORIGIN+9
  6977 39E0 A9 0C			lda #$0C
  6978 39E2 69 00			adc #$00
  6979 39E4 85 2F			sta :STACKORIGIN+STACKWIDTH+9
  6980 39E6 AD 1D 3D			lda BATCH
  6981 39E9 18 65 1F			add :STACKORIGIN+9
  6982 39EC A8				tay
  6983 39ED AD 1E 3D			lda BATCH+1
  6984 39F0 65 2F			adc :STACKORIGIN+STACKWIDTH+9
  6985 39F2 85 03			sta :bp+1
  6986 39F4 B1 02			lda (:bp),y
  6987 39F6 8D 79 7E			sta NEURALNET.TRAIN.OUTPUT
  6988 39F9 AD 1F 3D			lda CURRINPUT
  6989 39FC 8D 77 7E			sta NEURALNET.TRAIN.INPUT
  6990 39FF AD 20 3D			lda CURRINPUT+1
  6991 3A02 8D 78 7E			sta NEURALNET.TRAIN.INPUT+1
  6992 3A05 20 DC 22			jsr NEURALNET.TRAIN
  6993
  6994 				; optimize FAIL ('SYSUTILS.INTTOSTR.@010182000', /Users/manuelvio/sviluppo/PETSCII-Boy-3000/pascal/PetsciiBoy3000.pas), line = 643
  6995
  6996 3A08 E8				inx
  6997 3A09 AD C2 9C 95 16		mva TOTAL :STACKORIGIN,x
  6998 3A0E AD C3 9C 95 26		mva TOTAL+1 :STACKORIGIN+STACKWIDTH,x
  6999 3A13 A9 00 95 36			mva #$00 :STACKORIGIN+STACKWIDTH*2,x
  7000 3A17 95 46			sta :STACKORIGIN+STACKWIDTH*3,x
  7001 3A19 20 8C 19			jsr SYSUTILS.INTTOSTR.@010182000
  7002 3A1C B5 16			lda :STACKORIGIN,x
  7003 3A1E 85 04			sta :bp2
  7004 3A20 B5 26			lda :STACKORIGIN+STACKWIDTH,x
  7005 3A22 85 05			sta :bp2+1
  7006 3A24 A0 00			ldy #$00
  7007 3A26 B1 04 99 AE 3F C8 + 	mva:rne (:bp2),y STRINGUTILS.STRCAT.@020189860000010001898600000100.adr.S2,y+
  7008 3A2E E8				inx
  7009 3A2F A0 00			ldy #$00
  7010 3A31 B9 01 0B 99 AE 3E + 	mva:rne $0B01,y STRINGUTILS.STRCAT.@020189860000010001898600000100.adr.S1,y+
  7011 3A3A 20 48 1A			jsr STRINGUTILS.STRCAT.@020189860000010001898600000100
  7012 3A3D E8				inx
  7013 3A3E AD D5 1A 95 16		mva STRINGUTILS.STRCAT.@020189860000010001898600000100.RESULT :STACKORIGIN,x
  7014 3A43 AD D6 1A 95 26		mva STRINGUTILS.STRCAT.@020189860000010001898600000100.RESULT+1 :STACKORIGIN+STACKWIDTH,x
  7015 3A48 20 6B 2C			jsr LOG.@0101898600000021
  7016
  7017 				; optimize FAIL (0, /Users/manuelvio/sviluppo/PETSCII-Boy-3000/pascal/PetsciiBoy3000.pas), line = 644
  7018
  7019 3A4B AD C2 9C			lda TOTAL
  7020 3A4E D0 03			bne @+
  7021 3A50 CE C3 9C			dec TOTAL+1
  7022 				@
  7023 3A53 CE C2 9C			dec TOTAL
  7024
  7025 				; --- ForToDoEpilog
  7026 3A56 EE B0 7E			inc J
  7027 3A59 F0 03 4C 69 39		jne l_135F
  7028 3A5E			l_136D
  7029 3A5E			b_135F
  7030
  7031 				; optimize OK (/Users/manuelvio/sviluppo/PETSCII-Boy-3000/pascal/PetsciiBoy3000.pas), line = 648
  7032
  7033 3A5E A9 00			lda #$00
  7034 3A60 8D B0 7E			sta J
  7035 3A63 AC 56 7E			ldy NEURALNET.BATCHLENGTH
  7036 3A66 88				dey
  7037 3A67 8C 6B 3A			sty @FORTMP_13EB_0
  7038
  7039 3A6A			l_13EE
  7040 				; --- ForToDoCondition
  7041 3A6A A9 00			lda @FORTMP_13EB_0::#$00
  7042 3A6C CD B0 7E			cmp J
  7043 3A6F B0 03 4C ED 3B		jcc l_13FC
  7044
  7045 				; optimize FAIL ('CRT.KEYPRESSED', /Users/manuelvio/sviluppo/PETSCII-Boy-3000/pascal/PetsciiBoy3000.pas), line = 650
  7046
  7047 3A74 20 06 19			jsr CRT.KEYPRESSED
  7048 3A77 AD 33 3E			lda CRT.KEYPRESSED.RESULT
  7049 3A7A F0 12			jeq l_1406
  7050
  7051 				; optimize FAIL ('CONFIRM', /Users/manuelvio/sviluppo/PETSCII-Boy-3000/pascal/PetsciiBoy3000.pas), line = 651
  7052
  7053 3A7C E8				inx
  7054 3A7D A9 EC 95 16			mva #$EC :STACKORIGIN,x
  7055 3A81 A9 0A 95 26			mva #$0A :STACKORIGIN+STACKWIDTH,x
  7056 3A85 20 3B 2D			jsr CONFIRM
  7057 3A88 AD 68 9C			lda CONFIRM.RESULT
  7058 3A8B 8D C4 9C			sta STOP
  7059 3A8E			l_1406
  7060
  7061 				; optimize OK (/Users/manuelvio/sviluppo/PETSCII-Boy-3000/pascal/PetsciiBoy3000.pas), line = 652
  7062
  7063 3A8E AD C4 9C			lda STOP
  7064 3A91 F0 03			jeq l_141A
  7065 3A93 4C ED 3B			jmp b_13EE
  7066 3A96			l_141A
  7067
  7068 				; optimize OK (/Users/manuelvio/sviluppo/PETSCII-Boy-3000/pascal/PetsciiBoy3000.pas), line = 653
  7069
  7070 3A96 A9 00			lda #$00
  7071 3A98 8D AF 7E			sta I
  7072
  7073 3A9B			l_1426
  7074 				; --- ForToDoCondition
  7075 3A9B AD AF 7E			lda I
  7076 3A9E C9 20			cmp #$20
  7077 3AA0 B0 28			jcs l_1434
  7078
  7079 				; optimize OK (/Users/manuelvio/sviluppo/PETSCII-Boy-3000/pascal/PetsciiBoy3000.pas), line = 654
  7080
  7081 3AA2 85 0E			sta :ecx
  7082 3AA4 A9 64			lda #$64
  7083 3AA6 85 06			sta :eax
  7084 					.ifdef fmulinit
  7085 					fmulu_8
  7086 					els
  7087 3AA8 20 E9 0C			imulCL
  7088 					eif
  7089 3AAB A5 06			lda :eax
  7090 3AAD 18 6D 1D 3D			add BATCH
  7091 3AB1 85 04			sta :bp2
  7092 3AB3 A5 07			lda :eax+1
  7093 3AB5 6D 1E 3D			adc BATCH+1
  7094 3AB8 85 05			sta :bp2+1
  7095 3ABA AC B0 7E			ldy J
  7096 3ABD B1 04			lda (:bp2),y
  7097 3ABF AC AF 7E			ldy I
  7098 3AC2 99 97 8B			sta adr.CURRINPUT,y
  7099
  7100 				; --- ForToDoEpilog
  7101 3AC5 EE AF 7E			inc I
  7102 3AC8 D0 D1			jne l_1426
  7103 3ACA			l_1434
  7104
  7105 				; optimize OK (/Users/manuelvio/sviluppo/PETSCII-Boy-3000/pascal/PetsciiBoy3000.pas), line = 655
  7106
  7107 3ACA AD 1F 3D			lda CURRINPUT
  7108 3ACD 8D 93 9C			sta DRAWDIGIT.INPUT
  7109 3AD0 AD 20 3D			lda CURRINPUT+1
  7110 3AD3 8D 94 9C			sta DRAWDIGIT.INPUT+1
  7111 3AD6 20 59 30			jsr DRAWDIGIT
  7112
  7113 				; optimize OK (/Users/manuelvio/sviluppo/PETSCII-Boy-3000/pascal/PetsciiBoy3000.pas), line = 656
  7114
  7115 3AD9 AD 1F 3D			lda CURRINPUT
  7116 3ADC 8D 69 7E			sta NEURALNET.PREDICT.INPUT
  7117 3ADF AD 20 3D			lda CURRINPUT+1
  7118 3AE2 8D 6A 7E			sta NEURALNET.PREDICT.INPUT+1
  7119 3AE5 20 CB 1F			jsr NEURALNET.PREDICT
  7120 3AE8 AD 6B 7E			lda NEURALNET.PREDICT.RESULT
  7121 3AEB 8D EB 8B			sta PREDICTED
  7122
  7123 				; optimize FAIL ('DRAWHIDDENACTIVATIONS', /Users/manuelvio/sviluppo/PETSCII-Boy-3000/pascal/PetsciiBoy3000.pas), line = 657
  7124
  7125 3AEE 20 9F 32			jsr DRAWHIDDENACTIVATIONS
  7126
  7127 				; optimize FAIL ('DRAWOUTPUTACTIVATIONS', /Users/manuelvio/sviluppo/PETSCII-Boy-3000/pascal/PetsciiBoy3000.pas), line = 658
  7128
  7129 3AF1 20 4F 33			jsr DRAWOUTPUTACTIVATIONS
  7130
  7131 				; optimize FAIL (0, /Users/manuelvio/sviluppo/PETSCII-Boy-3000/pascal/PetsciiBoy3000.pas), line = 659
  7132
  7133 3AF4 EE C0 9C			inc PROCESSED
  7134 3AF7 D0 03			sne
  7135 3AF9 EE C1 9C			inc PROCESSED+1
  7136
  7137 				; optimize OK (/Users/manuelvio/sviluppo/PETSCII-Boy-3000/pascal/PetsciiBoy3000.pas), line = 660
  7138
  7139 3AFC A9 80			lda #$80
  7140 3AFE 18 6D B0 7E			add J
  7141 3B02 85 1F			sta :STACKORIGIN+9
  7142 3B04 A9 0C			lda #$0C
  7143 3B06 69 00			adc #$00
  7144 3B08 85 2F			sta :STACKORIGIN+STACKWIDTH+9
  7145 3B0A AD 1D 3D			lda BATCH
  7146 3B0D 18 65 1F			add :STACKORIGIN+9
  7147 3B10 A8				tay
  7148 3B11 AD 1E 3D			lda BATCH+1
  7149 3B14 65 2F			adc :STACKORIGIN+STACKWIDTH+9
  7150 3B16 85 03			sta :bp+1
  7151 3B18 B1 02			lda (:bp),y
  7152 3B1A CD EB 8B			cmp PREDICTED
  7153 3B1D D0 08			jne l_1479
  7154
  7155 				; optimize FAIL (0, /Users/manuelvio/sviluppo/PETSCII-Boy-3000/pascal/PetsciiBoy3000.pas), line = 661
  7156
  7157 3B1F EE E9 8B			inc CORRECT
  7158 3B22 D0 03			sne
  7159 3B24 EE EA 8B			inc CORRECT+1
  7160 3B27			l_1479
  7161
  7162 				; optimize FAIL ('SYSTEM.FLOATTOSTR', /Users/manuelvio/sviluppo/PETSCII-Boy-3000/pascal/PetsciiBoy3000.pas), line = 662
  7163
  7164 3B27 E8				inx
  7165 3B28 AD E9 8B 95 16		mva CORRECT :STACKORIGIN,x
  7166 3B2D AD EA 8B 95 26		mva CORRECT+1 :STACKORIGIN+STACKWIDTH,x
  7167 3B32 E8				inx
  7168 3B33 A9 00 95 16			mva #$00 :STACKORIGIN,x
  7169 3B37 AD C0 9C 95 26		mva PROCESSED :STACKORIGIN+STACKWIDTH,x
  7170 3B3C AD C1 9C 95 36		mva PROCESSED+1 :STACKORIGIN+STACKWIDTH*2,x
  7171 3B41 A9 00 95 46			mva #$00 :STACKORIGIN+STACKWIDTH*3,x
  7172 3B45 95 35			sta :STACKORIGIN-1+STACKWIDTH*2,x
  7173 3B47 95 45			sta :STACKORIGIN-1+STACKWIDTH*3,x
  7174 3B49 20 19 0C			jsr @expandToREAL1
  7175 3B4C B5 16			lda :STACKORIGIN,x
  7176 3B4E 85 0E			sta @REAL_DIV.B
  7177 3B50 B5 26			lda :STACKORIGIN+STACKWIDTH,x
  7178 3B52 85 0F			sta @REAL_DIV.B+1
  7179 3B54 B5 36			lda :STACKORIGIN+STACKWIDTH*2,x
  7180 3B56 85 10			sta @REAL_DIV.B+2
  7181 3B58 B5 46			lda :STACKORIGIN+STACKWIDTH*3,x
  7182 3B5A 85 11			sta @REAL_DIV.B+3
  7183 3B5C B5 15			lda :STACKORIGIN-1,x
  7184 3B5E 85 06			sta @REAL_DIV.A
  7185 3B60 B5 25			lda :STACKORIGIN-1+STACKWIDTH,x
  7186 3B62 85 07			sta @REAL_DIV.A+1
  7187 3B64 B5 35			lda :STACKORIGIN-1+STACKWIDTH*2,x
  7188 3B66 85 08			sta @REAL_DIV.A+2
  7189 3B68 B5 45			lda :STACKORIGIN-1+STACKWIDTH*3,x
  7190 3B6A 85 09			sta @REAL_DIV.A+3
  7191 3B6C 20 AC 0E			jsr @REAL_DIV
  7192 3B6F A5 06			lda :eax
  7193 3B71 95 15			sta :STACKORIGIN-1,x
  7194 3B73 A5 07			lda :eax+1
  7195 3B75 95 25			sta :STACKORIGIN-1+STACKWIDTH,x
  7196 3B77 A5 08			lda :eax+2
  7197 3B79 95 35			sta :STACKORIGIN-1+STACKWIDTH*2,x
  7198 3B7B A5 09			lda :eax+3
  7199 3B7D 95 45			sta :STACKORIGIN-1+STACKWIDTH*3,x
  7200 3B7F A9 00			lda #$00
  7201 3B81 85 0E			sta @REAL_MUL.B
  7202 3B83 A9 64			lda #$64
  7203 3B85 85 0F			sta @REAL_MUL.B+1
  7204 3B87 A9 00			lda #$00
  7205 3B89 85 10			sta @REAL_MUL.B+2
  7206 3B8B A9 00			lda #$00
  7207 3B8D 85 11			sta @REAL_MUL.B+3
  7208 3B8F B5 15			lda :STACKORIGIN-1,x
  7209 3B91 85 06			sta @REAL_MUL.A
  7210 3B93 B5 25			lda :STACKORIGIN-1+STACKWIDTH,x
  7211 3B95 85 07			sta @REAL_MUL.A+1
  7212 3B97 B5 35			lda :STACKORIGIN-1+STACKWIDTH*2,x
  7213 3B99 85 08			sta @REAL_MUL.A+2
  7214 3B9B B5 45			lda :STACKORIGIN-1+STACKWIDTH*3,x
  7215 3B9D 85 09			sta @REAL_MUL.A+3
  7216 3B9F 20 ED 0D			jsr @REAL_MUL
  7217 3BA2 A5 06			lda :eax
  7218 3BA4 95 15			sta :STACKORIGIN-1,x
  7219 3BA6 A5 07			lda :eax+1
  7220 3BA8 95 25			sta :STACKORIGIN-1+STACKWIDTH,x
  7221 3BAA A5 08			lda :eax+2
  7222 3BAC 95 35			sta :STACKORIGIN-1+STACKWIDTH*2,x
  7223 3BAE A5 09			lda :eax+3
  7224 3BB0 95 45			sta :STACKORIGIN-1+STACKWIDTH*3,x
  7225 3BB2 CA				dex
  7226 3BB3 20 F0 17			jsr SYSTEM.FLOATTOSTR
  7227 3BB6 B5 16			lda :STACKORIGIN,x
  7228 3BB8 85 04			sta :bp2
  7229 3BBA B5 26			lda :STACKORIGIN+STACKWIDTH,x
  7230 3BBC 85 05			sta :bp2+1
  7231 3BBE A0 00			ldy #$00
  7232 3BC0 B1 04 99 AE 3F C8 + 	mva:rne (:bp2),y STRINGUTILS.STRCAT.@020189860000010001898600000100.adr.S2,y+
  7233 3BC8 E8				inx
  7234 3BC9 A0 00			ldy #$00
  7235 3BCB B9 14 0B 99 AE 3E + 	mva:rne $0B14,y STRINGUTILS.STRCAT.@020189860000010001898600000100.adr.S1,y+
  7236 3BD4 20 48 1A			jsr STRINGUTILS.STRCAT.@020189860000010001898600000100
  7237 3BD7 E8				inx
  7238 3BD8 AD D5 1A 95 16		mva STRINGUTILS.STRCAT.@020189860000010001898600000100.RESULT :STACKORIGIN,x
  7239 3BDD AD D6 1A 95 26		mva STRINGUTILS.STRCAT.@020189860000010001898600000100.RESULT+1 :STACKORIGIN+STACKWIDTH,x
  7240 3BE2 20 6B 2C			jsr LOG.@0101898600000021
  7241
  7242 				; --- ForToDoEpilog
  7243 3BE5 EE B0 7E			inc J
  7244 3BE8 F0 03 4C 6A 3A		jne l_13EE
  7245 3BED			l_13FC
  7246 3BED			b_13EE
  7247
  7248 				; --- ForToDoEpilog
  7249 3BED EE 92 38			inc l_1330+1
  7250 3BF0 F0 03 4C 91 38		jne l_1330
  7251 3BF5			l_1333
  7252 3BF5			b_1330
  7253
  7254 				; --- ForToDoEpilog
  7255 3BF5 EE AE 7E			inc EPOCH
  7256 3BF8 F0 03 4C 69 38		jne l_1309
  7257 3BFD			l_1317
  7258 3BFD			b_1309
  7259
  7260 				; optimize OK (/Users/manuelvio/sviluppo/PETSCII-Boy-3000/pascal/PetsciiBoy3000.pas), line = 666
  7261
  7262 3BFD AD C4 9C			lda STOP
  7263 3C00 F0 0C			jeq l_14A6
  7264 3C02 E8				inx
  7265 3C03 A9 1E 95 16			mva #$1E :STACKORIGIN,x
  7266 3C07 A9 0B 95 26			mva #$0B :STACKORIGIN+STACKWIDTH,x
  7267 3C0B 20 6B 2C			jsr LOG.@0101898600000021
  7268 3C0E			l_14A6
  7269
  7270 				; optimize OK (/Users/manuelvio/sviluppo/PETSCII-Boy-3000/pascal/PetsciiBoy3000.pas), line = 667
  7271
  7272 3C0E A9 00			lda #$00
  7273 3C10 8D C4 9C			sta STOP
  7274
  7275 				; ------------------------------------------------------------
  7276
  7277 = 9CBF			EPOCHS	= DATAORIGIN+$5EDE
  7278 = 9CC0			PROCESSED	= DATAORIGIN+$5EDF
  7279 = 9CC2			TOTAL	= DATAORIGIN+$5EE1
  7280 = 9CC4			STOP	= DATAORIGIN+$5EE3
  7281
  7282 = 9CBF			@VarData	= EPOCHS
  7283 = 0006			@VarDataSize	= 6
  7284
  7285 3C13			@exit
  7286 					.ifdef @new
  7287 					lda <@VarData
  7288 					sta :ztmp
  7289 					lda >@VarData
  7290 					ldy #@VarDataSize-1
  7291 					jmp @FreeMem
  7292 					els
  7293 3C13 60				rts						; ret
  7294 					eif
  7295 				.endl
  7296
  7297 3C14			.local	SCANKEY						; PROCEDURE
  7298
  7299 				; optimize FAIL ('CRT.READKEY', /Users/manuelvio/sviluppo/PETSCII-Boy-3000/pascal/PetsciiBoy3000.pas), line = 678
  7300
  7301 3C14 20 F8 18			jsr CRT.READKEY
  7302 3C17 AD 32 3E			lda CRT.READKEY.RESULT
  7303 3C1A 8D C8 9C			sta C
  7304
  7305 				; optimize OK (/Users/manuelvio/sviluppo/PETSCII-Boy-3000/pascal/PetsciiBoy3000.pas), line = 679
  7306
  7307 3C1D 8D C9 9C			sta @CASETMP_0008
  7308 3C20 C9 A5			cmp #$A5
  7309 3C22 D0 20			jne l_14C2
  7310 				@
  7311
  7312 				; optimize FAIL ('DISPLAYMENU', /Users/manuelvio/sviluppo/PETSCII-Boy-3000/pascal/PetsciiBoy3000.pas), line = 681
  7313
  7314 3C24 E8				inx
  7315 3C25 A9 92 95 16			mva #$92 :STACKORIGIN,x
  7316 3C29 A9 0B 95 26			mva #$0B :STACKORIGIN+STACKWIDTH,x
  7317 3C2D 20 76 31			jsr DISPLAYMENU
  7318
  7319 				; optimize OK (/Users/manuelvio/sviluppo/PETSCII-Boy-3000/pascal/PetsciiBoy3000.pas), line = 682
  7320
  7321 3C30 A9 02			lda #$02
  7322 3C32 20 15 38			jsr TRAINLOOP
  7323
  7324 				; optimize FAIL ('DISPLAYMENU', /Users/manuelvio/sviluppo/PETSCII-Boy-3000/pascal/PetsciiBoy3000.pas), line = 683
  7325
  7326 3C35 E8				inx
  7327 3C36 A9 88 95 16			mva #$88 :STACKORIGIN,x
  7328 3C3A A9 0B 95 26			mva #$0B :STACKORIGIN+STACKWIDTH,x
  7329 3C3E 20 76 31			jsr DISPLAYMENU
  7330 3C41 4C EA 3C			jmp a_0008
  7331 3C44			l_14C2
  7332 3C44 C9 A9			cmp #$A9
  7333 3C46 D0 31			jne l_14CF
  7334
  7335 				; optimize FAIL ('CONFIRM', /Users/manuelvio/sviluppo/PETSCII-Boy-3000/pascal/PetsciiBoy3000.pas), line = 685
  7336
  7337 3C48 E8				inx
  7338 3C49 A9 2F 95 16			mva #$2F :STACKORIGIN,x
  7339 3C4D A9 0B 95 26			mva #$0B :STACKORIGIN+STACKWIDTH,x
  7340 3C51 20 3B 2D			jsr CONFIRM
  7341 3C54 AD 68 9C			lda CONFIRM.RESULT
  7342 3C57 F0 1D			jeq l_14DA
  7343
  7344 				; optimize FAIL ('LOG.@0101898600000021', /Users/manuelvio/sviluppo/PETSCII-Boy-3000/pascal/PetsciiBoy3000.pas), line = 687
  7345
  7346 3C59 E8				inx
  7347 3C5A A9 43 95 16			mva #$43 :STACKORIGIN,x
  7348 3C5E A9 0B 95 26			mva #$0B :STACKORIGIN+STACKWIDTH,x
  7349 3C62 20 6B 2C			jsr LOG.@0101898600000021
  7350
  7351 				; optimize OK (/Users/manuelvio/sviluppo/PETSCII-Boy-3000/pascal/PetsciiBoy3000.pas), line = 688
  7352
  7353 3C65 A9 08			lda #$08
  7354 3C67 20 AE 2E			jsr SAVENETWORKPARAMETERS
  7355
  7356 				; optimize FAIL ('LOG.@0101898600000021', /Users/manuelvio/sviluppo/PETSCII-Boy-3000/pascal/PetsciiBoy3000.pas), line = 689
  7357
  7358 3C6A E8				inx
  7359 3C6B A9 58 95 16			mva #$58 :STACKORIGIN,x
  7360 3C6F A9 0B 95 26			mva #$0B :STACKORIGIN+STACKWIDTH,x
  7361 3C73 20 6B 2C			jsr LOG.@0101898600000021
  7362 3C76			l_14DA
  7363 3C76 4C EA 3C			jmp a_0008
  7364 3C79			l_14CF
  7365 3C79 C9 A6			cmp #$A6
  7366 3C7B D0 31			jne l_14EA
  7367
  7368 				; optimize FAIL ('CONFIRM', /Users/manuelvio/sviluppo/PETSCII-Boy-3000/pascal/PetsciiBoy3000.pas), line = 691
  7369
  7370 3C7D E8				inx
  7371 3C7E A9 2F 95 16			mva #$2F :STACKORIGIN,x
  7372 3C82 A9 0B 95 26			mva #$0B :STACKORIGIN+STACKWIDTH,x
  7373 3C86 20 3B 2D			jsr CONFIRM
  7374 3C89 AD 68 9C			lda CONFIRM.RESULT
  7375 3C8C F0 1D			jeq l_14F5
  7376
  7377 				; optimize FAIL ('LOG.@0101898600000021', /Users/manuelvio/sviluppo/PETSCII-Boy-3000/pascal/PetsciiBoy3000.pas), line = 693
  7378
  7379 3C8E E8				inx
  7380 3C8F A9 60 95 16			mva #$60 :STACKORIGIN,x
  7381 3C93 A9 0B 95 26			mva #$0B :STACKORIGIN+STACKWIDTH,x
  7382 3C97 20 6B 2C			jsr LOG.@0101898600000021
  7383
  7384 				; optimize OK (/Users/manuelvio/sviluppo/PETSCII-Boy-3000/pascal/PetsciiBoy3000.pas), line = 694
  7385
  7386 3C9A A9 08			lda #$08
  7387 3C9C 20 56 2F			jsr LOADNETWORKPARAMETERS
  7388
  7389 				; optimize FAIL ('LOG.@0101898600000021', /Users/manuelvio/sviluppo/PETSCII-Boy-3000/pascal/PetsciiBoy3000.pas), line = 695
  7390
  7391 3C9F E8				inx
  7392 3CA0 A9 58 95 16			mva #$58 :STACKORIGIN,x
  7393 3CA4 A9 0B 95 26			mva #$0B :STACKORIGIN+STACKWIDTH,x
  7394 3CA8 20 6B 2C			jsr LOG.@0101898600000021
  7395 3CAB			l_14F5
  7396 3CAB 4C EA 3C			jmp a_0008
  7397 3CAE			l_14EA
  7398 3CAE C9 AA			cmp #$AA
  7399 3CB0 D0 19			jne l_1505
  7400
  7401 				; optimize OK (/Users/manuelvio/sviluppo/PETSCII-Boy-3000/pascal/PetsciiBoy3000.pas), line = 697
  7402
  7403 3CB2 A9 01			lda #$01
  7404 3CB4 8D 9C 9C			sta CLEARSCREENAREA.X1
  7405 3CB7 8D 9D 9C			sta CLEARSCREENAREA.Y1
  7406 3CBA A9 10			lda #$10
  7407 3CBC 8D 9E 9C			sta CLEARSCREENAREA.X2
  7408 3CBF 8D 9F 9C			sta CLEARSCREENAREA.Y2
  7409 3CC2 20 36 31			jsr CLEARSCREENAREA
  7410 3CC5 20 A4 30			jsr CLEARDIGIT
  7411 3CC8 4C EA 3C			jmp a_0008
  7412 3CCB			l_1505
  7413 3CCB C9 A7			cmp #$A7
  7414 3CCD D0 1B			jne l_1512
  7415
  7416 				; optimize FAIL ('DISPLAYMENU', /Users/manuelvio/sviluppo/PETSCII-Boy-3000/pascal/PetsciiBoy3000.pas), line = 698
  7417
  7418 3CCF E8				inx
  7419 3CD0 A9 9C 95 16			mva #$9C :STACKORIGIN,x
  7420 3CD4 A9 0B 95 26			mva #$0B :STACKORIGIN+STACKWIDTH,x
  7421 3CD8 20 76 31			jsr DISPLAYMENU
  7422 3CDB 20 37 36			jsr DRAWANDPREDICT
  7423 3CDE E8				inx
  7424 3CDF A9 88 95 16			mva #$88 :STACKORIGIN,x
  7425 3CE3 A9 0B 95 26			mva #$0B :STACKORIGIN+STACKWIDTH,x
  7426 3CE7 20 76 31			jsr DISPLAYMENU
  7427 3CEA			l_1512
  7428 3CEA			a_0008
  7429
  7430 				; optimize OK (/Users/manuelvio/sviluppo/PETSCII-Boy-3000/pascal/PetsciiBoy3000.pas), line = 702
  7431
  7432 3CEA A9 00			lda #$00
  7433 3CEC 85 C6			sta KEYBOARDBUFFERLENGTH
  7434
  7435 				; ------------------------------------------------------------
  7436
  7437 = 9CC8			C	= DATAORIGIN+$5EE7
  7438 = 9CC9			@CASETMP_0008	= DATAORIGIN+$5EE8
  7439
  7440 = 9CC8			@VarData	= C
  7441 = 0002			@VarDataSize	= 2
  7442
  7443 3CEE			@exit
  7444 					.ifdef @new
  7445 					lda <@VarData
  7446 					sta :ztmp
  7447 					lda >@VarData
  7448 					ldy #@VarDataSize-1
  7449 					jmp @FreeMem
  7450 					els
  7451 3CEE 60				rts						; ret
  7452 					eif
  7453 				.endl
  7454 3CEF			l_027A
  7455
  7456 				; optimize FAIL ('C64RANDOMIZE', /Users/manuelvio/sviluppo/PETSCII-Boy-3000/pascal/PetsciiBoy3000.pas), line = 708
  7457
  7458 3CEF 20 28 31			jsr C64RANDOMIZE
  7459
  7460 				; optimize FAIL ('INIT', /Users/manuelvio/sviluppo/PETSCII-Boy-3000/pascal/PetsciiBoy3000.pas), line = 709
  7461
  7462 3CF2 20 DA 2F			jsr INIT
  7463
  7464 				; optimize FAIL ('DISPLAYMENU', /Users/manuelvio/sviluppo/PETSCII-Boy-3000/pascal/PetsciiBoy3000.pas), line = 710
  7465
  7466 3CF5 E8				inx
  7467 3CF6 A9 88 95 16			mva #$88 :STACKORIGIN,x
  7468 3CFA A9 0B 95 26			mva #$0B :STACKORIGIN+STACKWIDTH,x
  7469 3CFE 20 76 31			jsr DISPLAYMENU
  7470
  7471 				; --- RepeatUntilProlog
  7472 3D01			l_1528
  7473
  7474 				; optimize FAIL ('CRT.KEYPRESSED', /Users/manuelvio/sviluppo/PETSCII-Boy-3000/pascal/PetsciiBoy3000.pas), line = 712
  7475
  7476 3D01 20 06 19			jsr CRT.KEYPRESSED
  7477 3D04 AD 33 3E			lda CRT.KEYPRESSED.RESULT
  7478 3D07 F0 03			jeq l_1532
  7479 3D09 20 14 3C			jsr SCANKEY
  7480 3D0C			l_1532
  7481
  7482 				; optimize OK (/Users/manuelvio/sviluppo/PETSCII-Boy-3000/pascal/PetsciiBoy3000.pas), line = 713
  7483
  7484 3D0C 4C 01 3D			jmp l_1528
  7485
  7486 				; ------------------------------------------------------------
  7487
  7488 = 0008			DRIVE_NO	= $08
  7489 = 0001			CANVAS_X	= $01
  7490 = 0001			CANVAS_Y	= $01
  7491 = 0010			CANVAS_HEIGHT	= $10
  7492 = 0010			CANVAS_WIDTH	= $10
  7493 = 0020			BLANK	= $20
  7494 = 002A			CANVAS_PIXEL_ON	= $2A
  7495 = 0020			CANVAS_PIXEL_OFF	= $20
  7496 = 0079			KEY_Y	= $79
  7497 = 0005			MENU_ITEMS	= $05
  7498 = 0010			BATCHES_COUNT	= $10
  7499 = 0000			INPUT_JOYSTICK	= $00
  7500 = 0001			INPUT_LIGHTPEN	= $01
  7501 = 0B76			adr.ACTIVATION_HISTOGRAM_LEVELS	= CODEORIGIN+$0276
  7502 3D0F			.var ACTIVATION_HISTOGRAM_LEVELS	= adr.ACTIVATION_HISTOGRAM_LEVELS .word
  7503 = 0B88			adr.MAIN_MENU	= CODEORIGIN+$0288
  7504 3D0F			.var MAIN_MENU	= adr.MAIN_MENU .word
  7505 = 0B92			adr.TRAINING_MENU	= CODEORIGIN+$0292
  7506 3D0F			.var TRAINING_MENU	= adr.TRAINING_MENU .word
  7507 = 0B9C			adr.DRAWING_MENU	= CODEORIGIN+$029C
  7508 3D0F			.var DRAWING_MENU	= adr.DRAWING_MENU .word
  7509 = 00C6			KEYBOARDBUFFERLENGTH	= $C6
  7510 = 07F8			SPRITE0ADDRMULT	= $07F8
  7511 = 07F9			SPRITE1ADDRMULT	= $07F9
  7512 = 0400			adr.SCREENRAM	= $0400
  7513 3D0F			.var SCREENRAM	= adr.SCREENRAM .word
  7514 = 0286			CURRENTCOLOR	= $0286
  7515 = 7EAE			EPOCH	= DATAORIGIN+$40CD
  7516 = 7EAF			I	= DATAORIGIN+$40CE
  7517 = 7EB0			J	= DATAORIGIN+$40CF
  7518 = 7EB1			DX	= DATAORIGIN+$40D0
  7519 = 7EB2			DY	= DATAORIGIN+$40D1
  7520 = 7EB3			adr.BATCH	= [DATAORIGIN+$40D2] .array [33] [100]
  7521 3D0F			.var BATCH	= adr.BATCH .word
  7522 = 8B97			adr.CURRINPUT	= [DATAORIGIN+$4DB6] .array [32]
  7523 3D0F			.var CURRINPUT	= adr.CURRINPUT .word
  7524 = 8BB7			adr.BATCHINDEXES	= [DATAORIGIN+$4DD6] .array [16]
  7525 3D0F			.var BATCHINDEXES	= adr.BATCHINDEXES .word
  7526 = 8BC7			BATCHIDX	= DATAORIGIN+$4DE6
  7527 = 8BC8			adr.BATCHNAME	= [DATAORIGIN+$4DE7] .array [33]
  7528 3D0F			.var BATCHNAME	= adr.BATCHNAME .word
  7529 = 8BE9			CORRECT	= DATAORIGIN+$4E08
  7530 = 8BEB			PREDICTED	= DATAORIGIN+$4E0A
  7531 = 8BEC			adr.CURSORSPRITEDATA	= [DATAORIGIN+$4E0B] .array [4096]
  7532 3D0F			.var CURSORSPRITEDATA	= adr.CURSORSPRITEDATA .word
  7533 = 0380			adr.CURSORSPRITE	= $0380
  7534 3D0F			.var CURSORSPRITE	= adr.CURSORSPRITE .word
  7535 = 0340			adr.DIGITSPRITE	= $0340
  7536 3D0F			.var DIGITSPRITE	= adr.DIGITSPRITE .word
  7537 = 9BEC			CURSORX	= DATAORIGIN+$5E0B
  7538 = 9BED			CURSORY	= DATAORIGIN+$5E0C
  7539 = 9BEE			OLDCURSORX	= DATAORIGIN+$5E0D
  7540 = 9BEF			OLDCURSORY	= DATAORIGIN+$5E0E
  7541 = 9BF0			CURSORMOVED	= DATAORIGIN+$5E0F
  7542 = 9BF1			ROW	= DATAORIGIN+$5E10
  7543 = 9BF2			BIT	= DATAORIGIN+$5E11
  7544 = 9BF3			adr.CHARDATA	= [DATAORIGIN+$5E12] .array [8]
  7545 3D0F			.var CHARDATA	= adr.CHARDATA .word
  7546 = 9BFB			INPUTMODE	= DATAORIGIN+$5E1A
  7547 3D0F			@exit
  7548
  7549 3D0F A2 00		@halt	ldx #$00
  7550 3D11 9A				txs
  7551
  7552 3D12 60				rts
  7553
  7554 				; ------------------------------------------------------------
  7555
  7556 3D13			.local	@DEFINES
  7557 3D13			C64
  7558 3D13			CPU_6502
  7559 				.endl
  7560
  7561 3D13			.local	@RESOURCE
  7562 				.endl
  7563
  7564 = 3D13 76 0B		ACTIVATION_HISTOGRAM_LEVELS
  7564 = 3D15 88 0B		MAIN_MENU
  7564 = 3D17 92 0B		TRAINING_MENU
  7564 = 3D19 9C 0B		DRAWING_MENU
  7564 = 3D1B 00 04		SCREENRAM
  7564 = 3D1D B3 7E		BATCH
  7564 = 3D1F 97 8B		CURRINPUT
  7564 = 3D21 B7 8B		BATCHINDEXES
  7564 = 3D23 C8 8B		BATCHNAME
  7564 = 3D25 EC 8B		CURSORSPRITEDATA
  7564 = 3D27 80 03		CURSORSPRITE
  7564 = 3D29 40 03		DIGITSPRITE
  7564 = 3D2B F3 9B		CHARDATA
  7564 				.endl							; MAIN
  7565
  7566 				; ------------------------------------------------------------
  7567 				; ------------------------------------------------------------
  7568
  7569 				.macro	UNITINITIALIZATION
  7570 				
  7571 					.ifdef MAIN.SYSTEM.@UnitInit
  7572 					jsr MAIN.SYSTEM.@UnitInit
  7573 					.fi
  7574 				
  7575 					.ifdef MAIN.CRT.@UnitInit
  7576 					jsr MAIN.CRT.@UnitInit
  7577 					.fi
  7578 				
  7579 					.ifdef MAIN.DOS.@UnitInit
  7580 					jsr MAIN.DOS.@UnitInit
  7581 					.fi
  7582 				
  7583 					.ifdef MAIN.STRUTILS.@UnitInit
  7584 					jsr MAIN.STRUTILS.@UnitInit
  7585 					.fi
  7586 				
  7587 					.ifdef MAIN.SYSUTILS.@UnitInit
  7588 					jsr MAIN.SYSUTILS.@UnitInit
  7589 					.fi
  7590 				
  7591 					.ifdef MAIN.C64.@UnitInit
  7592 					jsr MAIN.C64.@UnitInit
  7593 					.fi
  7594 				
  7595 					.ifdef MAIN.MATH.@UnitInit
  7596 					jsr MAIN.MATH.@UnitInit
  7597 					.fi
  7598 				
  7599 					.ifdef MAIN.STRINGUTILS.@UnitInit
  7600 					jsr MAIN.STRINGUTILS.@UnitInit
  7601 					.fi
  7602 				
  7603 					.ifdef MAIN.KERNAL.@UnitInit
  7604 					jsr MAIN.KERNAL.@UnitInit
  7605 					.fi
  7606 				
  7607 					.ifdef MAIN.NEURALNET.@UnitInit
  7608 					jsr MAIN.NEURALNET.@UnitInit
  7609 					.fi
  7610 				
  7611 					.ifdef MAIN.HARDWARE.@UnitInit
  7612 					jsr MAIN.HARDWARE.@UnitInit
  7613 					.fi
  7614 				
  7615 					.ifdef MAIN.JOYSTICK.@UnitInit
  7616 					jsr MAIN.JOYSTICK.@UnitInit
  7617 					.fi
  7618 				
  7619 					.ifdef MAIN.MOUSE1531.@UnitInit
  7620 					jsr MAIN.MOUSE1531.@UnitInit
  7621 					.fi
  7622 				
  7623 					.ifdef MAIN.LIGHTPEN.@UnitInit
  7624 					jsr MAIN.LIGHTPEN.@UnitInit
  7625 					.fi
  7626 				.endm
  7627
  7628 				; ------------------------------------------------------------
  7629
  7630 					ift .SIZEOF(MAIN.SYSTEM) > 0
  7631 					.print 'SYSTEM: ',MAIN.SYSTEM,'..',MAIN.SYSTEM+.SIZEOF(MAIN.SYSTEM)-1
  7631 				SYSTEM: $1636..$18F3
  7632 					eif
  7633
  7634 					ift .SIZEOF(MAIN.CRT) > 0
  7635 					.print 'CRT: ',MAIN.CRT,'..',MAIN.CRT+.SIZEOF(MAIN.CRT)-1
  7635 				CRT: $18F4..$1945
  7636 					eif
  7637
  7638 					ift .SIZEOF(MAIN.DOS) > 0
  7639 					.print 'DOS: ',MAIN.DOS,'..',MAIN.DOS+.SIZEOF(MAIN.DOS)-1
  7640 					eif
  7641
  7642 					ift .SIZEOF(MAIN.STRUTILS) > 0
  7643 					.print 'STRUTILS: ',MAIN.STRUTILS,'..',MAIN.STRUTILS+.SIZEOF(MAIN.STRUTILS)-1
  7644 					eif
  7645
  7646 					ift .SIZEOF(MAIN.SYSUTILS) > 0
  7647 					.print 'SYSUTILS: ',MAIN.SYSUTILS,'..',MAIN.SYSUTILS+.SIZEOF(MAIN.SYSUTILS)-1
  7647 				SYSUTILS: $1946..$19F1
  7648 					eif
  7649
  7650 					ift .SIZEOF(MAIN.C64) > 0
  7651 					.print 'C64: ',MAIN.C64,'..',MAIN.C64+.SIZEOF(MAIN.C64)-1
  7652 					eif
  7653
  7654 					ift .SIZEOF(MAIN.MATH) > 0
  7655 					.print 'MATH: ',MAIN.MATH,'..',MAIN.MATH+.SIZEOF(MAIN.MATH)-1
  7655 				MATH: $19F2..$1A47
  7656 					eif
  7657
  7658 					ift .SIZEOF(MAIN.STRINGUTILS) > 0
  7659 					.print 'STRINGUTILS: ',MAIN.STRINGUTILS,'..',MAIN.STRINGUTILS+.SIZEOF(MAIN.STRINGUTILS)-1
  7659 				STRINGUTILS: $1A48..$1AD8
  7660 					eif
  7661
  7662 					ift .SIZEOF(MAIN.KERNAL) > 0
  7663 					.print 'KERNAL: ',MAIN.KERNAL,'..',MAIN.KERNAL+.SIZEOF(MAIN.KERNAL)-1
  7663 				KERNAL: $1AD9..$1CE8
  7664 					eif
  7665
  7666 					ift .SIZEOF(MAIN.NEURALNET) > 0
  7667 					.print 'NEURALNET: ',MAIN.NEURALNET,'..',MAIN.NEURALNET+.SIZEOF(MAIN.NEURALNET)-1
  7667 				NEURALNET: $1CE9..$2987
  7668 					eif
  7669
  7670 					ift .SIZEOF(MAIN.HARDWARE) > 0
  7671 					.print 'HARDWARE: ',MAIN.HARDWARE,'..',MAIN.HARDWARE+.SIZEOF(MAIN.HARDWARE)-1
  7672 					eif
  7673
  7674 					ift .SIZEOF(MAIN.JOYSTICK) > 0
  7675 					.print 'JOYSTICK: ',MAIN.JOYSTICK,'..',MAIN.JOYSTICK+.SIZEOF(MAIN.JOYSTICK)-1
  7675 				JOYSTICK: $2988..$29F8
  7676 					eif
  7677
  7678 					ift .SIZEOF(MAIN.MOUSE1531) > 0
  7679 					.print 'MOUSE1531: ',MAIN.MOUSE1531,'..',MAIN.MOUSE1531+.SIZEOF(MAIN.MOUSE1531)-1
  7680 					eif
  7681
  7682 					ift .SIZEOF(MAIN.LIGHTPEN) > 0
  7683 					.print 'LIGHTPEN: ',MAIN.LIGHTPEN,'..',MAIN.LIGHTPEN+.SIZEOF(MAIN.LIGHTPEN)-1
  7683 				LIGHTPEN: $29F9..$2AFC
  7684 					eif
  7685
  7686 				.nowarn	.print 'CODE: ',CODEORIGIN,'..',MAIN.@RESOURCE-1
  7686 				CODE: $0900..$3D12
  7687
  7688 					ift .SIZEOF(MAIN.@RESOURCE)>0
  7689 				.nowarn	.print 'RESOURCE: ',MAIN.@RESOURCE,'..',MAIN.@RESOURCE+.SIZEOF(MAIN.@RESOURCE)-1
  7690 					eif
  7691
  7692 3D2D			@end
  7693
  7694 				.nowarn	.print 'VARS: ',MAIN.@RESOURCE+.SIZEOF(MAIN.@RESOURCE),'..',@end-1
  7694 				VARS: $3D13..$3D2C
  7695
  7696 				; ------------------------------------------------------------
  7697
  7698 = 3D2D				?adr = *
  7699 					ift (?adr < ?old_adr) && (?old_adr - ?adr < $120)
  7700 = 3DE1				?adr = ?old_adr
  7701 					eif
  7702
  7703 					org ?adr
  7704 = 3DE1				?old_adr = *
  7705
  7706 3DE1			DATAORIGIN
  7707 3DE1 2D 0C 00 00 00 28 + .by  $2D $0C $00 $00 $00 $28 $00 $18  $00 $00 $00 $00 $00 $00 $00 $00  $00 $00 $00 $00 $00 $00 $00 $00
  7708 3DF9 00 00 00 00 00 00 + .by  $00 $00 $00 $00 $00 $00 $00 $00  $00 $00 $00 $00 $00 $00 $00 $00  $00 $00 $00 $00 $00 $00 $00 $00
  7709 3E11 00 00 00 00 00 00 + .by  $00 $00 $00 $00 $00 $00 $00 $00  $00 $00 $00 $00 $00 $00 $00 $00  $00 $00 $00 $00 $00 $00 $00 $00
  7710 3E29 00 00 00 00 00 00 + .by  $00 $00 $00 $00 $00 $00 $00 $00  $00 $00 $00 $00 $00 $00 $00 $00  $00 $00 $00 $00 $00 $00 $00 $00
  7711 3E41 00 00 00 00 00 00 + .by  $00 $00 $00 $00 $00 $00 $00 $00  $00 $00 $00 $00 $00 $00 $00 $00  $00 $00 $00 $00 $00 $00 $00 $00
  7712 3E59 00 00 00 00 00 00 + .by  $00 $00 $00 $00 $00 $00 $00 $00  $00 $00 $00 $00 $00 $00 $00 $00  $00 $00 $00 $00 $00 $00 $00 $00
  7713 3E71 00 00 00 00 00 00 + .by  $00 $00 $00 $00 $00 $00 $00 $00  $00 $00 $00 $00 $00 $00 $00 $00  $00 $00 $00 $00 $00 $00 $00 $00
  7714 3E89 00 00 00 00 00 00 + .by  $00 $00 $00 $00 $00 $00 $00 $00  $00 $00 $00 $00 $00 $00 $00 $00  $00 $00 $00 $00 $00 $00 $00 $00
  7715 3EA1 00 00 00 00 00 00 + .by  $00 $00 $00 $00 $00 $00 $00 $00  $00 $00 $00 $00 $00 $00 $00 $00  $00 $00 $00 $00 $00 $00 $00 $00
  7716 3EB9 00 00 00 00 00 00 + .by  $00 $00 $00 $00 $00 $00 $00 $00  $00 $00 $00 $00 $00 $00 $00 $00  $00 $00 $00 $00 $00 $00 $00 $00
  7717 3ED1 00 00 00 00 00 00 + .by  $00 $00 $00 $00 $00 $00 $00 $00  $00 $00 $00 $00 $00 $00 $00 $00  $00 $00 $00 $00 $00 $00 $00 $00
  7718 3EE9 00 00 00 00 00 00 + .by  $00 $00 $00 $00 $00 $00 $00 $00  $00 $00 $00 $00 $00 $00 $00 $00  $00 $00 $00 $00 $00 $00 $00 $00
  7719 3F01 00 00 00 00 00 00 + .by  $00 $00 $00 $00 $00 $00 $00 $00  $00 $00 $00 $00 $00 $00 $00 $00  $00 $00 $00 $00 $00 $00 $00 $00
  7720 3F19 00 00 00 00 00 00 + .by  $00 $00 $00 $00 $00 $00 $00 $00  $00 $00 $00 $00 $00 $00 $00 $00  $00 $00 $00 $00 $00 $00 $00 $00
  7721 3F31 00 00 00 00 00 00 + .by  $00 $00 $00 $00 $00 $00 $00 $00  $00 $00 $00 $00 $00 $00 $00 $00  $00 $00 $00 $00 $00 $00 $00 $00
  7722 3F49 00 00 00 00 00 00 + .by  $00 $00 $00 $00 $00 $00 $00 $00  $00 $00 $00 $00 $00 $00 $00 $00  $00 $00 $00 $00 $00 $00 $00 $00
  7723 3F61 00 00 00 00 00 00 + .by  $00 $00 $00 $00 $00 $00 $00 $00  $00 $00 $00 $00 $00 $00 $00 $00  $00 $00 $00 $00 $00 $00 $00 $00
  7724 3F79 00 00 00 00 00 00 + .by  $00 $00 $00 $00 $00 $00 $00 $00  $00 $00 $00 $00 $00 $00 $00 $00  $00 $00 $00 $00 $00 $00 $00 $00
  7725 3F91 00 00 00 00 00 00 + .by  $00 $00 $00 $00 $00 $00 $00 $00  $00 $00 $00 $00 $00 $00 $00 $00  $00 $00 $00 $00 $00 $00 $00 $00
  7726 3FA9 00 00 00 00 00 00 + .by  $00 $00 $00 $00 $00 $00 $00 $00  $00 $00 $00 $00 $00 $00 $00 $00  $00 $00 $00 $00 $00 $00 $00 $00
  7727 3FC1 00 00 00 00 00 00 + .by  $00 $00 $00 $00 $00 $00 $00 $00  $00 $00 $00 $00 $00 $00 $00 $00  $00 $00 $00 $00 $00 $00 $00 $00
  7728 3FD9 00 00 00 00 00 00 + .by  $00 $00 $00 $00 $00 $00 $00 $00  $00 $00 $00 $00 $00 $00 $00 $00  $00 $00 $00 $00 $00 $00 $00 $00
  7729 3FF1 00 00 00 00 00 00 + .by  $00 $00 $00 $00 $00 $00 $00 $00  $00 $00 $00 $00 $00 $00 $00 $00  $00 $00 $00 $00 $00 $00 $00 $00
  7730 4009 00 00 00 00 00 00 + .by  $00 $00 $00 $00 $00 $00 $00 $00  $00 $00 $00 $00 $00 $00 $00 $00  $00 $00 $00 $00 $00 $00 $00 $00
  7731 4021 00 00 00 00 00 00 + .by  $00 $00 $00 $00 $00 $00 $00 $00  $00 $00 $00 $00 $00 $00 $00 $00  $00 $00 $00 $00 $00 $00 $00 $00
  7732 4039 00 00 00 00 00 00 + .by  $00 $00 $00 $00 $00 $00 $00 $00  $00 $00 $00 $00 $00 $00 $00 $00  $00 $00 $00 $00 $00 $00 $00 $00
  7733 4051 00 00 00 00 00 00 + .by  $00 $00 $00 $00 $00 $00 $00 $00  $00 $00 $00 $00 $00 $00 $00 $00  $00 $00 $00 $00 $00 $00 $00 $00
  7734 4069 00 00 00 00 00 00 + .by  $00 $00 $00 $00 $00 $00 $00 $00  $00 $00 $00 $00 $00 $00 $00 $00  $00 $00 $00 $00 $00 $00 $00 $00
  7735 4081 00 00 00 00 00 00 + .by  $00 $00 $00 $00 $00 $00 $00 $00  $00 $00 $00 $00 $00 $00 $00 $00  $00 $00 $00 $00 $00 $00 $00 $00
  7736 4099 00 00 00 00 00 00 + .by  $00 $00 $00 $00 $00 $00 $00 $00  $00 $00 $00 $00 $00 $00 $00 $00  $00 $00 $00 $00 $00 $00 $00 $00
  7737 40B1 00 00 00 00 00 00 + .by  $00 $00 $00 $00 $00 $00 $00 $00  $00 $00 $00 $00 $00 $00 $00 $00  $00 $00 $00 $00 $00 $00 $00 $00
  7738 40C9 00 00 00 00 00 00 + .by  $00 $00 $00 $00 $00 $00 $00 $00  $00 $00 $00 $00 $00 $00 $00 $00  $00 $00 $00 $00 $00 $00 $00 $00
  7739 40E1 00 00 00 00 00 00 + .by  $00 $00 $00 $00 $00 $00 $00 $00  $00 $00 $00 $00 $00 $00 $00 $00  $00 $00 $00 $00 $00 $00 $00 $00
  7740 40F9 00 00 00 00 00 00 + .by  $00 $00 $00 $00 $00 $00 $00 $00  $00 $00 $00 $00 $00 $00 $00 $00  $00 $00 $00 $00 $00 $00 $00 $00
  7741 4111 00 00 00 00 00 00 + .by  $00 $00 $00 $00 $00 $00 $00 $00  $00 $00 $00 $00 $00 $00 $00 $00  $00 $00 $00 $00 $00 $00 $00 $00
  7742 4129 00 00 00 00 00 00 + .by  $00 $00 $00 $00 $00 $00 $00 $00  $00 $00 $00 $00 $00 $00 $00 $00  $00 $00 $00 $00 $00 $00 $00 $00
  7743 4141 00 00 00 00 00 00 + .by  $00 $00 $00 $00 $00 $00 $00 $00  $00 $00 $00 $00 $00 $00 $00 $00  $00 $00 $00 $00 $00 $00 $00 $00
  7744 4159 00 00 00 00 00 00 + .by  $00 $00 $00 $00 $00 $00 $00 $00  $00 $00 $00 $00 $00 $00 $00 $00  $00 $00 $00 $00 $00 $00 $00 $00
  7745 4171 00 00 00 00 00 00 + .by  $00 $00 $00 $00 $00 $00 $00 $00  $00 $00 $00 $00 $00 $00 $00 $00  $00 $00 $00 $00 $00 $00 $00 $00
  7746 4189 00 00 00 00 00 00 + .by  $00 $00 $00 $00 $00 $00 $00 $00  $00 $00 $00 $00 $00 $00 $00 $00  $00 $00 $00 $00 $00 $00 $00 $00
  7747 41A1 00 00 00 00 00 00 + .by  $00 $00 $00 $00 $00 $00 $00 $00  $00 $00 $00 $00 $00 $00 $00 $00  $00 $00 $00 $00 $00 $00 $00 $00
  7748 41B9 00 00 00 00 00 00 + .by  $00 $00 $00 $00 $00 $00 $00 $00  $00 $00 $00 $00 $00 $00 $00 $00  $00 $00 $00 $00 $00 $00 $00 $00
  7749 41D1 00 00 00 00 00 00 + .by  $00 $00 $00 $00 $00 $00 $00 $00  $00 $00 $00 $00 $00 $00 $00 $00  $00 $00 $00 $00 $00 $00 $00 $00
  7750 41E9 00 00 00 00 00 00 + .by  $00 $00 $00 $00 $00 $00 $00 $00  $00 $00 $00 $00 $00 $00 $00 $00  $00 $00 $00 $00 $00 $00 $00 $00
  7751 4201 00 00 00 00 00 00 + .by  $00 $00 $00 $00 $00 $00 $00 $00  $00 $00 $00 $00 $00 $00 $00 $00  $00 $00 $00 $00 $00 $00 $00 $00
  7752 4219 00 00 00 00 00 00 + .by  $00 $00 $00 $00 $00 $00 $00 $00  $00 $00 $00 $00 $00 $00 $00 $00  $00 $00 $00 $00 $00 $00 $00 $00
  7753 4231 00 00 00 00 00 00 + .by  $00 $00 $00 $00 $00 $00 $00 $00  $00 $00 $00 $00 $00 $00 $00 $00  $00 $00 $00 $00 $00 $00 $00 $00
  7754 4249 00 00 00 00 00 00 + .by  $00 $00 $00 $00 $00 $00 $00 $00  $00 $00 $00 $00 $00 $00 $00 $00  $00 $00 $00 $00 $00 $00 $00 $00
  7755 4261 00 00 00 00 00 00 + .by  $00 $00 $00 $00 $00 $00 $00 $00  $00 $00 $00 $00 $00 $00 $00 $00  $00 $00 $00 $00 $00 $00 $00 $00
  7756 4279 00 00 00 00 00 00 + .by  $00 $00 $00 $00 $00 $00 $00 $00  $00 $00 $00 $00 $00 $00 $00 $00  $00 $00 $00 $00 $00 $00 $00 $00
  7757 4291 00 00 00 00 00 00 + .by  $00 $00 $00 $00 $00 $00 $00 $00  $00 $00 $00 $00 $00 $00 $00 $00  $00 $00 $00 $00 $00 $00 $00 $00
  7758 42A9 00 00 00 00 00 00 + .by  $00 $00 $00 $00 $00 $00 $00 $00  $00 $00 $00 $00 $00 $00 $00 $00  $00 $00 $00 $00 $00 $00 $00 $00
  7759 42C1 00 00 00 00 00 00 + .by  $00 $00 $00 $00 $00 $00 $00 $00  $00 $00 $00 $00 $00 $00 $00 $00  $00 $00 $00 $00 $00 $00 $00 $00
  7760 42D9 00 00 00 00 00 00 + .by  $00 $00 $00 $00 $00 $00 $00 $00  $00 $00 $00 $00 $00 $00 $00 $00  $00 $00 $00 $00 $00 $00 $00 $00
  7761 42F1 00 00 00 00 00 00 + .by  $00 $00 $00 $00 $00 $00 $00 $00  $00 $00 $00 $00 $00 $00 $00 $00  $00 $00 $00 $00 $00 $00 $00 $00
  7762 4309 00 00 00 00 00 00 + .by  $00 $00 $00 $00 $00 $00 $00 $00  $00 $00 $00 $00 $00 $00 $00 $00  $00 $00 $00 $00 $00 $00 $00 $00
  7763 4321 00 00 00 00 00 00 + .by  $00 $00 $00 $00 $00 $00 $00 $00  $00 $00 $00 $00 $00 $00 $00 $00  $00 $00 $00 $00 $00 $00 $00 $00
  7764 4339 00 00 00 00 00 00 + .by  $00 $00 $00 $00 $00 $00 $00 $00  $00 $00 $00 $00 $00 $00 $00 $00  $00 $00 $00 $00 $00 $00 $00 $00
  7765 4351 00 00 00 00 00 00 + .by  $00 $00 $00 $00 $00 $00 $00 $00  $00 $00 $00 $00 $00 $00 $00 $00  $00 $00 $00 $00 $00 $00 $00 $00
  7766 4369 00 00 00 00 00 00 + .by  $00 $00 $00 $00 $00 $00 $00 $00  $00 $00 $00 $00 $00 $00 $00 $00  $00 $00 $00 $00 $00 $00 $00 $00
  7767 4381 00 00 00 00 00 00 + .by  $00 $00 $00 $00 $00 $00 $00 $00  $00 $00 $00 $00 $00 $00 $00 $00  $00 $00 $00 $00 $00 $00 $00 $00
  7768 4399 00 00 00 00 00 00 + .by  $00 $00 $00 $00 $00 $00 $00 $00  $00 $00 $00 $00 $00 $00 $00 $00  $00 $00 $00 $00 $00 $00 $00 $00
  7769 43B1 00 00 00 00 00 00 + .by  $00 $00 $00 $00 $00 $00 $00 $00  $00 $00 $00 $00 $00 $00 $00 $00  $00 $00 $00 $00 $00 $00 $00 $00
  7770 43C9 00 00 00 00 00 00 + .by  $00 $00 $00 $00 $00 $00 $00 $00  $00 $00 $00 $00 $00 $00 $00 $00  $00 $00 $00 $00 $00 $00 $00 $00
  7771 43E1 00 00 00 00 00 00 + .by  $00 $00 $00 $00 $00 $00 $00 $00  $00 $00 $00 $00 $00 $00 $00 $00  $00 $00 $00 $00 $00 $00 $00 $00
  7772 43F9 00 00 00 00 00 00 + .by  $00 $00 $00 $00 $00 $00 $00 $00  $00 $00 $00 $00 $00 $00 $00 $00  $00 $00 $00 $00 $00 $00 $00 $00
  7773 4411 00 00 00 00 00 00 + .by  $00 $00 $00 $00 $00 $00 $00 $00  $00 $00 $00 $00 $00 $00 $00 $00  $00 $00 $00 $00 $00 $00 $00 $00
  7774 4429 00 00 00 00 00 00 + .by  $00 $00 $00 $00 $00 $00 $00 $00  $00 $00 $00 $00 $00 $00 $00 $00  $00 $00 $00 $00 $00 $00 $00 $00
  7775 4441 00 00 00 00 00 00 + .by  $00 $00 $00 $00 $00 $00 $00 $00  $00 $00 $00 $00 $00 $00 $00 $00  $00 $00 $00 $00 $00 $00 $00 $00
  7776 4459 00 00 00 00 00 00 + .by  $00 $00 $00 $00 $00 $00 $00 $00  $00 $00 $00 $00 $00 $00 $00 $00  $00 $00 $00 $00 $00 $00 $00 $00
  7777 4471 00 00 00 00 00 00 + .by  $00 $00 $00 $00 $00 $00 $00 $00  $00 $00 $00 $00 $00 $00 $00 $00  $00 $00 $00 $00 $00 $00 $00 $00
  7778 4489 00 00 00 00 00 00 + .by  $00 $00 $00 $00 $00 $00 $00 $00  $00 $00 $00 $00 $00 $00 $00 $00  $00 $00 $00 $00 $00 $00 $00 $00
  7779 44A1 00 00 00 00 00 00 + .by  $00 $00 $00 $00 $00 $00 $00 $00  $00 $00 $00 $00 $00 $00 $00 $00  $00 $00 $00 $00 $00 $00 $00 $00
  7780 44B9 00 00 00 00 00 00 + .by  $00 $00 $00 $00 $00 $00 $00 $00  $00 $00 $00 $00 $00 $00 $00 $00  $00 $00 $00 $00 $00 $00 $00 $00
  7781 44D1 00 00 00 00 00 00 + .by  $00 $00 $00 $00 $00 $00 $00 $00  $00 $00 $00 $00 $00 $00 $00 $00  $00 $00 $00 $00 $00 $00 $00 $00
  7782 44E9 00 00 00 00 00 00 + .by  $00 $00 $00 $00 $00 $00 $00 $00  $00 $00 $00 $00 $00 $00 $00 $00  $00 $00 $00 $00 $00 $00 $00 $00
  7783 4501 00 00 00 00 00 00 + .by  $00 $00 $00 $00 $00 $00 $00 $00  $00 $00 $00 $00 $00 $00 $00 $00  $00 $00 $00 $00 $00 $00 $00 $00
  7784 4519 00 00 00 00 00 00 + .by  $00 $00 $00 $00 $00 $00 $00 $00  $00 $00 $00 $00 $00 $00 $00 $00  $00 $00 $00 $00 $00 $00 $00 $00
  7785 4531 00 00 00 00 00 00 + .by  $00 $00 $00 $00 $00 $00 $00 $00  $00 $00 $00 $00 $00 $00 $00 $00  $00 $00 $00 $00 $00 $00 $00 $00
  7786 4549 00 00 00 00 00 00 + .by  $00 $00 $00 $00 $00 $00 $00 $00  $00 $00 $00 $00 $00 $00 $00 $00  $00 $00 $00 $00 $00 $00 $00 $00
  7787 4561 00 00 00 00 00 00 + .by  $00 $00 $00 $00 $00 $00 $00 $00  $00 $00 $00 $00 $00 $00 $00 $00  $00 $00 $00 $00 $00 $00 $00 $00
  7788 4579 00 00 00 00 00 00 + .by  $00 $00 $00 $00 $00 $00 $00 $00  $00 $00 $00 $00 $00 $00 $00 $00  $00 $00 $00 $00 $00 $00 $00 $00
  7789 4591 00 00 00 00 00 00 + .by  $00 $00 $00 $00 $00 $00 $00 $00  $00 $00 $00 $00 $00 $00 $00 $00  $00 $00 $00 $00 $00 $00 $00 $00
  7790 45A9 00 00 00 00 00 00 + .by  $00 $00 $00 $00 $00 $00 $00 $00  $00 $00 $00 $00 $00 $00 $00 $00  $00 $00 $00 $00 $00 $00 $00 $00
  7791 45C1 00 00 00 00 00 00 + .by  $00 $00 $00 $00 $00 $00 $00 $00  $00 $00 $00 $00 $00 $00 $00 $00  $00 $00 $00 $00 $00 $00 $00 $00
  7792 45D9 00 00 00 00 00 00 + .by  $00 $00 $00 $00 $00 $00 $00 $00  $00 $00 $00 $00 $00 $00 $00 $00  $00 $00 $00 $00 $00 $00 $00 $00
  7793 45F1 00 00 00 00 00 00 + .by  $00 $00 $00 $00 $00 $00 $00 $00  $00 $00 $00 $00 $00 $00 $00 $00  $00 $00 $00 $00 $00 $00 $00 $00
  7794 4609 00 00 00 00 00 00 + .by  $00 $00 $00 $00 $00 $00 $00 $00  $00 $00 $00 $00 $00 $00 $00 $00  $00 $00 $00 $00 $00 $00 $00 $00
  7795 4621 00 00 00 00 00 00 + .by  $00 $00 $00 $00 $00 $00 $00 $00  $00 $00 $00 $00 $00 $00 $00 $00  $00 $00 $00 $00 $00 $00 $00 $00
  7796 4639 00 00 00 00 00 00 + .by  $00 $00 $00 $00 $00 $00 $00 $00  $00 $00 $00 $00 $00 $00 $00 $00  $00 $00 $00 $00 $00 $00 $00 $00
  7797 4651 00 00 00 00 00 00 + .by  $00 $00 $00 $00 $00 $00 $00 $00  $00 $00 $00 $00 $00 $00 $00 $00  $00 $00 $00 $00 $00 $00 $00 $00
  7798 4669 00 00 00 00 00 00 + .by  $00 $00 $00 $00 $00 $00 $00 $00  $00 $00 $00 $00 $00 $00 $00 $00  $00 $00 $00 $00 $00 $00 $00 $00
  7799 4681 00 00 00 00 00 00 + .by  $00 $00 $00 $00 $00 $00 $00 $00  $00 $00 $00 $00 $00 $00 $00 $00  $00 $00 $00 $00 $00 $00 $00 $00
  7800 4699 00 00 00 00 00 00 + .by  $00 $00 $00 $00 $00 $00 $00 $00  $00 $00 $00 $00 $00 $00 $00 $00  $00 $00 $00 $00 $00 $00 $00 $00
  7801 46B1 00 00 00 00 00 00 + .by  $00 $00 $00 $00 $00 $00 $00 $00  $00 $00 $00 $00 $00 $00 $00 $00  $00 $00 $00 $00 $00 $00 $00 $00
  7802 46C9 00 00 00 00 00 00 + .by  $00 $00 $00 $00 $00 $00 $00 $00  $00 $00 $00 $00 $00 $00 $00 $00  $00 $00 $00 $00 $00 $00 $00 $00
  7803 46E1 00 00 00 00 00 00 + .by  $00 $00 $00 $00 $00 $00 $00 $00  $00 $00 $00 $00 $00 $00 $00 $00  $00 $00 $00 $00 $00 $00 $00 $00
  7804 46F9 00 00 00 00 00 00 + .by  $00 $00 $00 $00 $00 $00 $00 $00  $00 $00 $00 $00 $00 $00 $00 $00  $00 $00 $00 $00 $00 $00 $00 $00
  7805 4711 00 00 00 00 00 00 + .by  $00 $00 $00 $00 $00 $00 $00 $00  $00 $00 $00 $00 $00 $00 $00 $00  $00 $00 $00 $00 $00 $00 $00 $00
  7806 4729 00 00 00 00 00 00 + .by  $00 $00 $00 $00 $00 $00 $00 $00  $00 $00 $00 $00 $00 $00 $00 $00  $00 $00 $00 $00 $00 $00 $00 $00
  7807 4741 00 00 00 00 00 00 + .by  $00 $00 $00 $00 $00 $00 $00 $00  $00 $00 $00 $00 $00 $00 $00 $00  $00 $00 $00 $00 $00 $00 $00 $00
  7808 4759 00 00 00 00 00 00 + .by  $00 $00 $00 $00 $00 $00 $00 $00  $00 $00 $00 $00 $00 $00 $00 $00  $00 $00 $00 $00 $00 $00 $00 $00
  7809 4771 00 00 00 00 00 00 + .by  $00 $00 $00 $00 $00 $00 $00 $00  $00 $00 $00 $00 $00 $00 $00 $00  $00 $00 $00 $00 $00 $00 $00 $00
  7810 4789 00 00 00 00 00 00 + .by  $00 $00 $00 $00 $00 $00 $00 $00  $00 $00 $00 $00 $00 $00 $00 $00  $00 $00 $00 $00 $00 $00 $00 $00
  7811 47A1 00 00 00 00 00 00 + .by  $00 $00 $00 $00 $00 $00 $00 $00  $00 $00 $00 $00 $00 $00 $00 $00  $00 $00 $00 $00 $00 $00 $00 $00
  7812 47B9 00 00 00 00 00 00 + .by  $00 $00 $00 $00 $00 $00 $00 $00  $00 $00 $00 $00 $00 $00 $00 $00  $00 $00 $00 $00 $00 $00 $00 $00
  7813 47D1 00 00 00 00 00 00 + .by  $00 $00 $00 $00 $00 $00 $00 $00  $00 $00 $00 $00 $00 $00 $00 $00  $00 $00 $00 $00 $00 $00 $00 $00
  7814 47E9 00 00 00 00 00 00 + .by  $00 $00 $00 $00 $00 $00 $00 $00  $00 $00 $00 $00 $00 $00 $00 $00  $00 $00 $00 $00 $00 $00 $00 $00
  7815 4801 00 00 00 00 00 00 + .by  $00 $00 $00 $00 $00 $00 $00 $00  $00 $00 $00 $00 $00 $00 $00 $00  $00 $00 $00 $00 $00 $00 $00 $00
  7816 4819 00 00 00 00 00 00 + .by  $00 $00 $00 $00 $00 $00 $00 $00  $00 $00 $00 $00 $00 $00 $00 $00  $00 $00 $00 $00 $00 $00 $00 $00
  7817 4831 00 00 00 00 00 00 + .by  $00 $00 $00 $00 $00 $00 $00 $00  $00 $00 $00 $00 $00 $00 $00 $00  $00 $00 $00 $00 $00 $00 $00 $00
  7818 4849 00 00 00 00 00 00 + .by  $00 $00 $00 $00 $00 $00 $00 $00  $00 $00 $00 $00 $00 $00 $00 $00  $00 $00 $00 $00 $00 $00 $00 $00
  7819 4861 00 00 00 00 00 00 + .by  $00 $00 $00 $00 $00 $00 $00 $00  $00 $00 $00 $00 $00 $00 $00 $00  $00 $00 $00 $00 $00 $00 $00 $00
  7820 4879 00 00 00 00 00 00 + .by  $00 $00 $00 $00 $00 $00 $00 $00  $00 $00 $00 $00 $00 $00 $00 $00  $00 $00 $00 $00 $00 $00 $00 $00
  7821 4891 00 00 00 00 00 00 + .by  $00 $00 $00 $00 $00 $00 $00 $00  $00 $00 $00 $00 $00 $00 $00 $00  $00 $00 $00 $00 $00 $00 $00 $00
  7822 48A9 00 00 00 00 00 00 + .by  $00 $00 $00 $00 $00 $00 $00 $00  $00 $00 $00 $00 $00 $00 $00 $00  $00 $00 $00 $00 $00 $00 $00 $00
  7823 48C1 00 00 00 00 00 00 + .by  $00 $00 $00 $00 $00 $00 $00 $00  $00 $00 $00 $00 $00 $00 $00 $00  $00 $00 $00 $00 $00 $00 $00 $00
  7824 48D9 00 00 00 00 00 00 + .by  $00 $00 $00 $00 $00 $00 $00 $00  $00 $00 $00 $00 $00 $00 $00 $00  $00 $00 $00 $00 $00 $00 $00 $00
  7825 48F1 00 00 00 00 00 00 + .by  $00 $00 $00 $00 $00 $00 $00 $00  $00 $00 $00 $00 $00 $00 $00 $00  $00 $00 $00 $00 $00 $00 $00 $00
  7826 4909 00 00 00 00 00 00 + .by  $00 $00 $00 $00 $00 $00 $00 $00  $00 $00 $00 $00 $00 $00 $00 $00  $00 $00 $00 $00 $00 $00 $00 $00
  7827 4921 00 00 00 00 00 00 + .by  $00 $00 $00 $00 $00 $00 $00 $00  $00 $00 $00 $00 $00 $00 $00 $00  $00 $00 $00 $00 $00 $00 $00 $00
  7828 4939 00 00 00 00 00 00 + .by  $00 $00 $00 $00 $00 $00 $00 $00  $00 $00 $00 $00 $00 $00 $00 $00  $00 $00 $00 $00 $00 $00 $00 $00
  7829 4951 00 00 00 00 00 00 + .by  $00 $00 $00 $00 $00 $00 $00 $00  $00 $00 $00 $00 $00 $00 $00 $00  $00 $00 $00 $00 $00 $00 $00 $00
  7830 4969 00 00 00 00 00 00 + .by  $00 $00 $00 $00 $00 $00 $00 $00  $00 $00 $00 $00 $00 $00 $00 $00  $00 $00 $00 $00 $00 $00 $00 $00
  7831 4981 00 00 00 00 00 00 + .by  $00 $00 $00 $00 $00 $00 $00 $00  $00 $00 $00 $00 $00 $00 $00 $00  $00 $00 $00 $00 $00 $00 $00 $00
  7832 4999 00 00 00 00 00 00 + .by  $00 $00 $00 $00 $00 $00 $00 $00  $00 $00 $00 $00 $00 $00 $00 $00  $00 $00 $00 $00 $00 $00 $00 $00
  7833 49B1 00 00 00 00 00 00 + .by  $00 $00 $00 $00 $00 $00 $00 $00  $00 $00 $00 $00 $00 $00 $00 $00  $00 $00 $00 $00 $00 $00 $00 $00
  7834 49C9 00 00 00 00 00 00 + .by  $00 $00 $00 $00 $00 $00 $00 $00  $00 $00 $00 $00 $00 $00 $00 $00  $00 $00 $00 $00 $00 $00 $00 $00
  7835 49E1 00 00 00 00 00 00 + .by  $00 $00 $00 $00 $00 $00 $00 $00  $00 $00 $00 $00 $00 $00 $00 $00  $00 $00 $00 $00 $00 $00 $00 $00
  7836 49F9 00 00 00 00 00 00 + .by  $00 $00 $00 $00 $00 $00 $00 $00  $00 $00 $00 $00 $00 $00 $00 $00  $00 $00 $00 $00 $00 $00 $00 $00
  7837 4A11 00 00 00 00 00 00 + .by  $00 $00 $00 $00 $00 $00 $00 $00  $00 $00 $00 $00 $00 $00 $00 $00  $00 $00 $00 $00 $00 $00 $00 $00
  7838 4A29 00 00 00 00 00 00 + .by  $00 $00 $00 $00 $00 $00 $00 $00  $00 $00 $00 $00 $00 $00 $00 $00  $00 $00 $00 $00 $00 $00 $00 $00
  7839 4A41 00 00 00 00 00 00 + .by  $00 $00 $00 $00 $00 $00 $00 $00  $00 $00 $00 $00 $00 $00 $00 $00  $00 $00 $00 $00 $00 $00 $00 $00
  7840 4A59 00 00 00 00 00 00 + .by  $00 $00 $00 $00 $00 $00 $00 $00  $00 $00 $00 $00 $00 $00 $00 $00  $00 $00 $00 $00 $00 $00 $00 $00
  7841 4A71 00 00 00 00 00 00 + .by  $00 $00 $00 $00 $00 $00 $00 $00  $00 $00 $00 $00 $00 $00 $00 $00  $00 $00 $00 $00 $00 $00 $00 $00
  7842 4A89 00 00 00 00 00 00 + .by  $00 $00 $00 $00 $00 $00 $00 $00  $00 $00 $00 $00 $00 $00 $00 $00  $00 $00 $00 $00 $00 $00 $00 $00
  7843 4AA1 00 00 00 00 00 00 + .by  $00 $00 $00 $00 $00 $00 $00 $00  $00 $00 $00 $00 $00 $00 $00 $00  $00 $00 $00 $00 $00 $00 $00 $00
  7844 4AB9 00 00 00 00 00 00 + .by  $00 $00 $00 $00 $00 $00 $00 $00  $00 $00 $00 $00 $00 $00 $00 $00  $00 $00 $00 $00 $00 $00 $00 $00
  7845 4AD1 00 00 00 00 00 00 + .by  $00 $00 $00 $00 $00 $00 $00 $00  $00 $00 $00 $00 $00 $00 $00 $00  $00 $00 $00 $00 $00 $00 $00 $00
  7846 4AE9 00 00 00 00 00 00 + .by  $00 $00 $00 $00 $00 $00 $00 $00  $00 $00 $00 $00 $00 $00 $00 $00  $00 $00 $00 $00 $00 $00 $00 $00
  7847 4B01 00 00 00 00 00 00 + .by  $00 $00 $00 $00 $00 $00 $00 $00  $00 $00 $00 $00 $00 $00 $00 $00  $00 $00 $00 $00 $00 $00 $00 $00
  7848 4B19 00 00 00 00 00 00 + .by  $00 $00 $00 $00 $00 $00 $00 $00  $00 $00 $00 $00 $00 $00 $00 $00  $00 $00 $00 $00 $00 $00 $00 $00
  7849 4B31 00 00 00 00 00 00 + .by  $00 $00 $00 $00 $00 $00 $00 $00  $00 $00 $00 $00 $00 $00 $00 $00  $00 $00 $00 $00 $00 $00 $00 $00
  7850 4B49 00 00 00 00 00 00 + .by  $00 $00 $00 $00 $00 $00 $00 $00  $00 $00 $00 $00 $00 $00 $00 $00  $00 $00 $00 $00 $00 $00 $00 $00
  7851 4B61 00 00 00 00 00 00 + .by  $00 $00 $00 $00 $00 $00 $00 $00  $00 $00 $00 $00 $00 $00 $00 $00  $00 $00 $00 $00 $00 $00 $00 $00
  7852 4B79 00 00 00 00 00 00 + .by  $00 $00 $00 $00 $00 $00 $00 $00  $00 $00 $00 $00 $00 $00 $00 $00  $00 $00 $00 $00 $00 $00 $00 $00
  7853 4B91 00 00 00 00 00 00 + .by  $00 $00 $00 $00 $00 $00 $00 $00  $00 $00 $00 $00 $00 $00 $00 $00  $00 $00 $00 $00 $00 $00 $00 $00
  7854 4BA9 00 00 00 00 00 00 + .by  $00 $00 $00 $00 $00 $00 $00 $00  $00 $00 $00 $00 $00 $00 $00 $00  $00 $00 $00 $00 $00 $00 $00 $00
  7855 4BC1 00 00 00 00 00 00 + .by  $00 $00 $00 $00 $00 $00 $00 $00  $00 $00 $00 $00 $00 $00 $00 $00  $00 $00 $00 $00 $00 $00 $00 $00
  7856 4BD9 00 00 00 00 00 00 + .by  $00 $00 $00 $00 $00 $00 $00 $00  $00 $00 $00 $00 $00 $00 $00 $00  $00 $00 $00 $00 $00 $00 $00 $00
  7857 4BF1 00 00 00 00 00 00 + .by  $00 $00 $00 $00 $00 $00 $00 $00  $00 $00 $00 $00 $00 $00 $00 $00  $00 $00 $00 $00 $00 $00 $00 $00
  7858 4C09 00 00 00 00 00 00 + .by  $00 $00 $00 $00 $00 $00 $00 $00  $00 $00 $00 $00 $00 $00 $00 $00  $00 $00 $00 $00 $00 $00 $00 $00
  7859 4C21 00 00 00 00 00 00 + .by  $00 $00 $00 $00 $00 $00 $00 $00  $00 $00 $00 $00 $00 $00 $00 $00  $00 $00 $00 $00 $00 $00 $00 $00
  7860 4C39 00 00 00 00 00 00 + .by  $00 $00 $00 $00 $00 $00 $00 $00  $00 $00 $00 $00 $00 $00 $00 $00  $00 $00 $00 $00 $00 $00 $00 $00
  7861 4C51 00 00 00 00 00 00 + .by  $00 $00 $00 $00 $00 $00 $00 $00  $00 $00 $00 $00 $00 $00 $00 $00  $00 $00 $00 $00 $00 $00 $00 $00
  7862 4C69 00 00 00 00 00 00 + .by  $00 $00 $00 $00 $00 $00 $00 $00  $00 $00 $00 $00 $00 $00 $00 $00  $00 $00 $00 $00 $00 $00 $00 $00
  7863 4C81 00 00 00 00 00 00 + .by  $00 $00 $00 $00 $00 $00 $00 $00  $00 $00 $00 $00 $00 $00 $00 $00  $00 $00 $00 $00 $00 $00 $00 $00
  7864 4C99 00 00 00 00 00 00 + .by  $00 $00 $00 $00 $00 $00 $00 $00  $00 $00 $00 $00 $00 $00 $00 $00  $00 $00 $00 $00 $00 $00 $00 $00
  7865 4CB1 00 00 00 00 00 00 + .by  $00 $00 $00 $00 $00 $00 $00 $00  $00 $00 $00 $00 $00 $00 $00 $00  $00 $00 $00 $00 $00 $00 $00 $00
  7866 4CC9 00 00 00 00 00 00 + .by  $00 $00 $00 $00 $00 $00 $00 $00  $00 $00 $00 $00 $00 $00 $00 $00  $00 $00 $00 $00 $00 $00 $00 $00
  7867 4CE1 00 00 00 00 00 00 + .by  $00 $00 $00 $00 $00 $00 $00 $00  $00 $00 $00 $00 $00 $00 $00 $00  $00 $00 $00 $00 $00 $00 $00 $00
  7868 4CF9 00 00 00 00 00 00 + .by  $00 $00 $00 $00 $00 $00 $00 $00  $00 $00 $00 $00 $00 $00 $00 $00  $00 $00 $00 $00 $00 $00 $00 $00
  7869 4D11 00 00 00 00 00 00 + .by  $00 $00 $00 $00 $00 $00 $00 $00  $00 $00 $00 $00 $00 $00 $00 $00  $00 $00 $00 $00 $00 $00 $00 $00
  7870 4D29 00 00 00 00 00 00 + .by  $00 $00 $00 $00 $00 $00 $00 $00  $00 $00 $00 $00 $00 $00 $00 $00  $00 $00 $00 $00 $00 $00 $00 $00
  7871 4D41 00 00 00 00 00 00 + .by  $00 $00 $00 $00 $00 $00 $00 $00  $00 $00 $00 $00 $00 $00 $00 $00  $00 $00 $00 $00 $00 $00 $00 $00
  7872 4D59 00 00 00 00 00 00 + .by  $00 $00 $00 $00 $00 $00 $00 $00  $00 $00 $00 $00 $00 $00 $00 $00  $00 $00 $00 $00 $00 $00 $00 $00
  7873 4D71 00 00 00 00 00 00 + .by  $00 $00 $00 $00 $00 $00 $00 $00  $00 $00 $00 $00 $00 $00 $00 $00  $00 $00 $00 $00 $00 $00 $00 $00
  7874 4D89 00 00 00 00 00 00 + .by  $00 $00 $00 $00 $00 $00 $00 $00  $00 $00 $00 $00 $00 $00 $00 $00  $00 $00 $00 $00 $00 $00 $00 $00
  7875 4DA1 00 00 00 00 00 00 + .by  $00 $00 $00 $00 $00 $00 $00 $00  $00 $00 $00 $00 $00 $00 $00 $00  $00 $00 $00 $00 $00 $00 $00 $00
  7876 4DB9 00 00 00 00 00 00 + .by  $00 $00 $00 $00 $00 $00 $00 $00  $00 $00 $00 $00 $00 $00 $00 $00  $00 $00 $00 $00 $00 $00 $00 $00
  7877 4DD1 00 00 00 00 00 00 + .by  $00 $00 $00 $00 $00 $00 $00 $00  $00 $00 $00 $00 $00 $00 $00 $00  $00 $00 $00 $00 $00 $00 $00 $00
  7878 4DE9 00 00 00 00 00 00 + .by  $00 $00 $00 $00 $00 $00 $00 $00  $00 $00 $00 $00 $00 $00 $00 $00  $00 $00 $00 $00 $00 $00 $00 $00
  7879 4E01 00 00 00 00 00 00 + .by  $00 $00 $00 $00 $00 $00 $00 $00  $00 $00 $00 $00 $00 $00 $00 $00  $00 $00 $00 $00 $00 $00 $00 $00
  7880 4E19 00 00 00 00 00 00 + .by  $00 $00 $00 $00 $00 $00 $00 $00  $00 $00 $00 $00 $00 $00 $00 $00  $00 $00 $00 $00 $00 $00 $00 $00
  7881 4E31 00 00 00 00 00 00 + .by  $00 $00 $00 $00 $00 $00 $00 $00  $00 $00 $00 $00 $00 $00 $00 $00  $00 $00 $00 $00 $00 $00 $00 $00
  7882 4E49 00 00 00 00 00 00 + .by  $00 $00 $00 $00 $00 $00 $00 $00  $00 $00 $00 $00 $00 $00 $00 $00  $00 $00 $00 $00 $00 $00 $00 $00
  7883 4E61 00 00 00 00 00 00 + .by  $00 $00 $00 $00 $00 $00 $00 $00  $00 $00 $00 $00 $00 $00 $00 $00  $00 $00 $00 $00 $00 $00 $00 $00
  7884 4E79 00 00 00 00 00 00 + .by  $00 $00 $00 $00 $00 $00 $00 $00  $00 $00 $00 $00 $00 $00 $00 $00  $00 $00 $00 $00 $00 $00 $00 $00
  7885 4E91 00 00 00 00 00 00 + .by  $00 $00 $00 $00 $00 $00 $00 $00  $00 $00 $00 $00 $00 $00 $00 $00  $00 $00 $00 $00 $00 $00 $00 $00
  7886 4EA9 00 00 00 00 00 00 + .by  $00 $00 $00 $00 $00 $00 $00 $00  $00 $00 $00 $00 $00 $00 $00 $00  $00 $00 $00 $00 $00 $00 $00 $00
  7887 4EC1 00 00 00 00 00 00 + .by  $00 $00 $00 $00 $00 $00 $00 $00  $00 $00 $00 $00 $00 $00 $00 $00  $00 $00 $00 $00 $00 $00 $00 $00
  7888 4ED9 00 00 00 00 00 00 + .by  $00 $00 $00 $00 $00 $00 $00 $00  $00 $00 $00 $00 $00 $00 $00 $00  $00 $00 $00 $00 $00 $00 $00 $00
  7889 4EF1 00 00 00 00 00 00 + .by  $00 $00 $00 $00 $00 $00 $00 $00  $00 $00 $00 $00 $00 $00 $00 $00  $00 $00 $00 $00 $00 $00 $00 $00
  7890 4F09 00 00 00 00 00 00 + .by  $00 $00 $00 $00 $00 $00 $00 $00  $00 $00 $00 $00 $00 $00 $00 $00  $00 $00 $00 $00 $00 $00 $00 $00
  7891 4F21 00 00 00 00 00 00 + .by  $00 $00 $00 $00 $00 $00 $00 $00  $00 $00 $00 $00 $00 $00 $00 $00  $00 $00 $00 $00 $00 $00 $00 $00
  7892 4F39 00 00 00 00 00 00 + .by  $00 $00 $00 $00 $00 $00 $00 $00  $00 $00 $00 $00 $00 $00 $00 $00  $00 $00 $00 $00 $00 $00 $00 $00
  7893 4F51 00 00 00 00 00 00 + .by  $00 $00 $00 $00 $00 $00 $00 $00  $00 $00 $00 $00 $00 $00 $00 $00  $00 $00 $00 $00 $00 $00 $00 $00
  7894 4F69 00 00 00 00 00 00 + .by  $00 $00 $00 $00 $00 $00 $00 $00  $00 $00 $00 $00 $00 $00 $00 $00  $00 $00 $00 $00 $00 $00 $00 $00
  7895 4F81 00 00 00 00 00 00 + .by  $00 $00 $00 $00 $00 $00 $00 $00  $00 $00 $00 $00 $00 $00 $00 $00  $00 $00 $00 $00 $00 $00 $00 $00
  7896 4F99 00 00 00 00 00 00 + .by  $00 $00 $00 $00 $00 $00 $00 $00  $00 $00 $00 $00 $00 $00 $00 $00  $00 $00 $00 $00 $00 $00 $00 $00
  7897 4FB1 00 00 00 00 00 00 + .by  $00 $00 $00 $00 $00 $00 $00 $00  $00 $00 $00 $00 $00 $00 $00 $00  $00 $00 $00 $00 $00 $00 $00 $00
  7898 4FC9 00 00 00 00 00 00 + .by  $00 $00 $00 $00 $00 $00 $00 $00  $00 $00 $00 $00 $00 $00 $00 $00  $00 $00 $00 $00 $00 $00 $00 $00
  7899 4FE1 00 00 00 00 00 00 + .by  $00 $00 $00 $00 $00 $00 $00 $00  $00 $00 $00 $00 $00 $00 $00 $00  $00 $00 $00 $00 $00 $00 $00 $00
  7900 4FF9 00 00 00 00 00 00 + .by  $00 $00 $00 $00 $00 $00 $00 $00  $00 $00 $00 $00 $00 $00 $00 $00  $00 $00 $00 $00 $00 $00 $00 $00
  7901 5011 00 00 00 00 00 00 + .by  $00 $00 $00 $00 $00 $00 $00 $00  $00 $00 $00 $00 $00 $00 $00 $00  $00 $00 $00 $00 $00 $00 $00 $00
  7902 5029 00 00 00 00 00 00 + .by  $00 $00 $00 $00 $00 $00 $00 $00  $00 $00 $00 $00 $00 $00 $00 $00  $00 $00 $00 $00 $00 $00 $00 $00
  7903 5041 00 00 00 00 00 00 + .by  $00 $00 $00 $00 $00 $00 $00 $00  $00 $00 $00 $00 $00 $00 $00 $00  $00 $00 $00 $00 $00 $00 $00 $00
  7904 5059 00 00 00 00 00 00 + .by  $00 $00 $00 $00 $00 $00 $00 $00  $00 $00 $00 $00 $00 $00 $00 $00  $00 $00 $00 $00 $00 $00 $00 $00
  7905 5071 00 00 00 00 00 00 + .by  $00 $00 $00 $00 $00 $00 $00 $00  $00 $00 $00 $00 $00 $00 $00 $00  $00 $00 $00 $00 $00 $00 $00 $00
  7906 5089 00 00 00 00 00 00 + .by  $00 $00 $00 $00 $00 $00 $00 $00  $00 $00 $00 $00 $00 $00 $00 $00  $00 $00 $00 $00 $00 $00 $00 $00
  7907 50A1 00 00 00 00 00 00 + .by  $00 $00 $00 $00 $00 $00 $00 $00  $00 $00 $00 $00 $00 $00 $00 $00  $00 $00 $00 $00 $00 $00 $00 $00
  7908 50B9 00 00 00 00 00 00 + .by  $00 $00 $00 $00 $00 $00 $00 $00  $00 $00 $00 $00 $00 $00 $00 $00  $00 $00 $00 $00 $00 $00 $00 $00
  7909 50D1 00 00 00 00 00 00 + .by  $00 $00 $00 $00 $00 $00 $00 $00  $00 $00 $00 $00 $00 $00 $00 $00  $00 $00 $00 $00 $00 $00 $00 $00
  7910 50E9 00 00 00 00 00 00 + .by  $00 $00 $00 $00 $00 $00 $00 $00  $00 $00 $00 $00 $00 $00 $00 $00  $00 $00 $00 $00 $00 $00 $00 $00
  7911 5101 00 00 00 00 00 00 + .by  $00 $00 $00 $00 $00 $00 $00 $00  $00 $00 $00 $00 $00 $00 $00 $00  $00 $00 $00 $00 $00 $00 $00 $00
  7912 5119 00 00 00 00 00 00 + .by  $00 $00 $00 $00 $00 $00 $00 $00  $00 $00 $00 $00 $00 $00 $00 $00  $00 $00 $00 $00 $00 $00 $00 $00
  7913 5131 00 00 00 00 00 00 + .by  $00 $00 $00 $00 $00 $00 $00 $00  $00 $00 $00 $00 $00 $00 $00 $00  $00 $00 $00 $00 $00 $00 $00 $00
  7914 5149 00 00 00 00 00 00 + .by  $00 $00 $00 $00 $00 $00 $00 $00  $00 $00 $00 $00 $00 $00 $00 $00  $00 $00 $00 $00 $00 $00 $00 $00
  7915 5161 00 00 00 00 00 00 + .by  $00 $00 $00 $00 $00 $00 $00 $00  $00 $00 $00 $00 $00 $00 $00 $00  $00 $00 $00 $00 $00 $00 $00 $00
  7916 5179 00 00 00 00 00 00 + .by  $00 $00 $00 $00 $00 $00 $00 $00  $00 $00 $00 $00 $00 $00 $00 $00  $00 $00 $00 $00 $00 $00 $00 $00
  7917 5191 00 00 00 00 00 00 + .by  $00 $00 $00 $00 $00 $00 $00 $00  $00 $00 $00 $00 $00 $00 $00 $00  $00 $00 $00 $00 $00 $00 $00 $00
  7918 51A9 00 00 00 00 00 00 + .by  $00 $00 $00 $00 $00 $00 $00 $00  $00 $00 $00 $00 $00 $00 $00 $00  $00 $00 $00 $00 $00 $00 $00 $00
  7919 51C1 00 00 00 00 00 00 + .by  $00 $00 $00 $00 $00 $00 $00 $00  $00 $00 $00 $00 $00 $00 $00 $00  $00 $00 $00 $00 $00 $00 $00 $00
  7920 51D9 00 00 00 00 00 00 + .by  $00 $00 $00 $00 $00 $00 $00 $00  $00 $00 $00 $00 $00 $00 $00 $00  $00 $00 $00 $00 $00 $00 $00 $00
  7921 51F1 00 00 00 00 00 00 + .by  $00 $00 $00 $00 $00 $00 $00 $00  $00 $00 $00 $00 $00 $00 $00 $00  $00 $00 $00 $00 $00 $00 $00 $00
  7922 5209 00 00 00 00 00 00 + .by  $00 $00 $00 $00 $00 $00 $00 $00  $00 $00 $00 $00 $00 $00 $00 $00  $00 $00 $00 $00 $00 $00 $00 $00
  7923 5221 00 00 00 00 00 00 + .by  $00 $00 $00 $00 $00 $00 $00 $00  $00 $00 $00 $00 $00 $00 $00 $00  $00 $00 $00 $00 $00 $00 $00 $00
  7924 5239 00 00 00 00 00 00 + .by  $00 $00 $00 $00 $00 $00 $00 $00  $00 $00 $00 $00 $00 $00 $00 $00  $00 $00 $00 $00 $00 $00 $00 $00
  7925 5251 00 00 00 00 00 00 + .by  $00 $00 $00 $00 $00 $00 $00 $00  $00 $00 $00 $00 $00 $00 $00 $00  $00 $00 $00 $00 $00 $00 $00 $00
  7926 5269 00 00 00 00 00 00 + .by  $00 $00 $00 $00 $00 $00 $00 $00  $00 $00 $00 $00 $00 $00 $00 $00  $00 $00 $00 $00 $00 $00 $00 $00
  7927 5281 00 00 00 00 00 00 + .by  $00 $00 $00 $00 $00 $00 $00 $00  $00 $00 $00 $00 $00 $00 $00 $00  $00 $00 $00 $00 $00 $00 $00 $00
  7928 5299 00 00 00 00 00 00 + .by  $00 $00 $00 $00 $00 $00 $00 $00  $00 $00 $00 $00 $00 $00 $00 $00  $00 $00 $00 $00 $00 $00 $00 $00
  7929 52B1 00 00 00 00 00 00 + .by  $00 $00 $00 $00 $00 $00 $00 $00  $00 $00 $00 $00 $00 $00 $00 $00  $00 $00 $00 $00 $00 $00 $00 $00
  7930 52C9 00 00 00 00 00 00 + .by  $00 $00 $00 $00 $00 $00 $00 $00  $00 $00 $00 $00 $00 $00 $00 $00  $00 $00 $00 $00 $00 $00 $00 $00
  7931 52E1 00 00 00 00 00 00 + .by  $00 $00 $00 $00 $00 $00 $00 $00  $00 $00 $00 $00 $00 $00 $00 $00  $00 $00 $00 $00 $00 $00 $00 $00
  7932 52F9 00 00 00 00 00 00 + .by  $00 $00 $00 $00 $00 $00 $00 $00  $00 $00 $00 $00 $00 $00 $00 $00  $00 $00 $00 $00 $00 $00 $00 $00
  7933 5311 00 00 00 00 00 00 + .by  $00 $00 $00 $00 $00 $00 $00 $00  $00 $00 $00 $00 $00 $00 $00 $00  $00 $00 $00 $00 $00 $00 $00 $00
  7934 5329 00 00 00 00 00 00 + .by  $00 $00 $00 $00 $00 $00 $00 $00  $00 $00 $00 $00 $00 $00 $00 $00  $00 $00 $00 $00 $00 $00 $00 $00
  7935 5341 00 00 00 00 00 00 + .by  $00 $00 $00 $00 $00 $00 $00 $00  $00 $00 $00 $00 $00 $00 $00 $00  $00 $00 $00 $00 $00 $00 $00 $00
  7936 5359 00 00 00 00 00 00 + .by  $00 $00 $00 $00 $00 $00 $00 $00  $00 $00 $00 $00 $00 $00 $00 $00  $00 $00 $00 $00 $00 $00 $00 $00
  7937 5371 00 00 00 00 00 00 + .by  $00 $00 $00 $00 $00 $00 $00 $00  $00 $00 $00 $00 $00 $00 $00 $00  $00 $00 $00 $00 $00 $00 $00 $00
  7938 5389 00 00 00 00 00 00 + .by  $00 $00 $00 $00 $00 $00 $00 $00  $00 $00 $00 $00 $00 $00 $00 $00  $00 $00 $00 $00 $00 $00 $00 $00
  7939 53A1 00 00 00 00 00 00 + .by  $00 $00 $00 $00 $00 $00 $00 $00  $00 $00 $00 $00 $00 $00 $00 $00  $00 $00 $00 $00 $00 $00 $00 $00
  7940 53B9 00 00 00 00 00 00 + .by  $00 $00 $00 $00 $00 $00 $00 $00  $00 $00 $00 $00 $00 $00 $00 $00  $00 $00 $00 $00 $00 $00 $00 $00
  7941 53D1 00 00 00 00 00 00 + .by  $00 $00 $00 $00 $00 $00 $00 $00  $00 $00 $00 $00 $00 $00 $00 $00  $00 $00 $00 $00 $00 $00 $00 $00
  7942 53E9 00 00 00 00 00 00 + .by  $00 $00 $00 $00 $00 $00 $00 $00  $00 $00 $00 $00 $00 $00 $00 $00  $00 $00 $00 $00 $00 $00 $00 $00
  7943 5401 00 00 00 00 00 00 + .by  $00 $00 $00 $00 $00 $00 $00 $00  $00 $00 $00 $00 $00 $00 $00 $00  $00 $00 $00 $00 $00 $00 $00 $00
  7944 5419 00 00 00 00 00 00 + .by  $00 $00 $00 $00 $00 $00 $00 $00  $00 $00 $00 $00 $00 $00 $00 $00  $00 $00 $00 $00 $00 $00 $00 $00
  7945 5431 00 00 00 00 00 00 + .by  $00 $00 $00 $00 $00 $00 $00 $00  $00 $00 $00 $00 $00 $00 $00 $00  $00 $00 $00 $00 $00 $00 $00 $00
  7946 5449 00 00 00 00 00 00 + .by  $00 $00 $00 $00 $00 $00 $00 $00  $00 $00 $00 $00 $00 $00 $00 $00  $00 $00 $00 $00 $00 $00 $00 $00
  7947 5461 00 00 00 00 00 00 + .by  $00 $00 $00 $00 $00 $00 $00 $00  $00 $00 $00 $00 $00 $00 $00 $00  $00 $00 $00 $00 $00 $00 $00 $00
  7948 5479 00 00 00 00 00 00 + .by  $00 $00 $00 $00 $00 $00 $00 $00  $00 $00 $00 $00 $00 $00 $00 $00  $00 $00 $00 $00 $00 $00 $00 $00
  7949 5491 00 00 00 00 00 00 + .by  $00 $00 $00 $00 $00 $00 $00 $00  $00 $00 $00 $00 $00 $00 $00 $00  $00 $00 $00 $00 $00 $00 $00 $00
  7950 54A9 00 00 00 00 00 00 + .by  $00 $00 $00 $00 $00 $00 $00 $00  $00 $00 $00 $00 $00 $00 $00 $00  $00 $00 $00 $00 $00 $00 $00 $00
  7951 54C1 00 00 00 00 00 00 + .by  $00 $00 $00 $00 $00 $00 $00 $00  $00 $00 $00 $00 $00 $00 $00 $00  $00 $00 $00 $00 $00 $00 $00 $00
  7952 54D9 00 00 00 00 00 00 + .by  $00 $00 $00 $00 $00 $00 $00 $00  $00 $00 $00 $00 $00 $00 $00 $00  $00 $00 $00 $00 $00 $00 $00 $00
  7953 54F1 00 00 00 00 00 00 + .by  $00 $00 $00 $00 $00 $00 $00 $00  $00 $00 $00 $00 $00 $00 $00 $00  $00 $00 $00 $00 $00 $00 $00 $00
  7954 5509 00 00 00 00 00 00 + .by  $00 $00 $00 $00 $00 $00 $00 $00  $00 $00 $00 $00 $00 $00 $00 $00  $00 $00 $00 $00 $00 $00 $00 $00
  7955 5521 00 00 00 00 00 00 + .by  $00 $00 $00 $00 $00 $00 $00 $00  $00 $00 $00 $00 $00 $00 $00 $00  $00 $00 $00 $00 $00 $00 $00 $00
  7956 5539 00 00 00 00 00 00 + .by  $00 $00 $00 $00 $00 $00 $00 $00  $00 $00 $00 $00 $00 $00 $00 $00  $00 $00 $00 $00 $00 $00 $00 $00
  7957 5551 00 00 00 00 00 00 + .by  $00 $00 $00 $00 $00 $00 $00 $00  $00 $00 $00 $00 $00 $00 $00 $00  $00 $00 $00 $00 $00 $00 $00 $00
  7958 5569 00 00 00 00 00 00 + .by  $00 $00 $00 $00 $00 $00 $00 $00  $00 $00 $00 $00 $00 $00 $00 $00  $00 $00 $00 $00 $00 $00 $00 $00
  7959 5581 00 00 00 00 00 00 + .by  $00 $00 $00 $00 $00 $00 $00 $00  $00 $00 $00 $00 $00 $00 $00 $00  $00 $00 $00 $00 $00 $00 $00 $00
  7960 5599 00 00 00 00 00 00 + .by  $00 $00 $00 $00 $00 $00 $00 $00  $00 $00 $00 $00 $00 $00 $00 $00  $00 $00 $00 $00 $00 $00 $00 $00
  7961 55B1 00 00 00 00 00 00 + .by  $00 $00 $00 $00 $00 $00 $00 $00  $00 $00 $00 $00 $00 $00 $00 $00  $00 $00 $00 $00 $00 $00 $00 $00
  7962 55C9 00 00 00 00 00 00 + .by  $00 $00 $00 $00 $00 $00 $00 $00  $00 $00 $00 $00 $00 $00 $00 $00  $00 $00 $00 $00 $00 $00 $00 $00
  7963 55E1 00 00 00 00 00 00 + .by  $00 $00 $00 $00 $00 $00 $00 $00  $00 $00 $00 $00 $00 $00 $00 $00  $00 $00 $00 $00 $00 $00 $00 $00
  7964 55F9 00 00 00 00 00 00 + .by  $00 $00 $00 $00 $00 $00 $00 $00  $00 $00 $00 $00 $00 $00 $00 $00  $00 $00 $00 $00 $00 $00 $00 $00
  7965 5611 00 00 00 00 00 00 + .by  $00 $00 $00 $00 $00 $00 $00 $00  $00 $00 $00 $00 $00 $00 $00 $00  $00 $00 $00 $00 $00 $00 $00 $00
  7966 5629 00 00 00 00 00 00 + .by  $00 $00 $00 $00 $00 $00 $00 $00  $00 $00 $00 $00 $00 $00 $00 $00  $00 $00 $00 $00 $00 $00 $00 $00
  7967 5641 00 00 00 00 00 00 + .by  $00 $00 $00 $00 $00 $00 $00 $00  $00 $00 $00 $00 $00 $00 $00 $00  $00 $00 $00 $00 $00 $00 $00 $00
  7968 5659 00 00 00 00 00 00 + .by  $00 $00 $00 $00 $00 $00 $00 $00  $00 $00 $00 $00 $00 $00 $00 $00  $00 $00 $00 $00 $00 $00 $00 $00
  7969 5671 00 00 00 00 00 00 + .by  $00 $00 $00 $00 $00 $00 $00 $00  $00 $00 $00 $00 $00 $00 $00 $00  $00 $00 $00 $00 $00 $00 $00 $00
  7970 5689 00 00 00 00 00 00 + .by  $00 $00 $00 $00 $00 $00 $00 $00  $00 $00 $00 $00 $00 $00 $00 $00  $00 $00 $00 $00 $00 $00 $00 $00
  7971 56A1 00 00 00 00 00 00 + .by  $00 $00 $00 $00 $00 $00 $00 $00  $00 $00 $00 $00 $00 $00 $00 $00  $00 $00 $00 $00 $00 $00 $00 $00
  7972 56B9 00 00 00 00 00 00 + .by  $00 $00 $00 $00 $00 $00 $00 $00  $00 $00 $00 $00 $00 $00 $00 $00  $00 $00 $00 $00 $00 $00 $00 $00
  7973 56D1 00 00 00 00 00 00 + .by  $00 $00 $00 $00 $00 $00 $00 $00  $00 $00 $00 $00 $00 $00 $00 $00  $00 $00 $00 $00 $00 $00 $00 $00
  7974 56E9 00 00 00 00 00 00 + .by  $00 $00 $00 $00 $00 $00 $00 $00  $00 $00 $00 $00 $00 $00 $00 $00  $00 $00 $00 $00 $00 $00 $00 $00
  7975 5701 00 00 00 00 00 00 + .by  $00 $00 $00 $00 $00 $00 $00 $00  $00 $00 $00 $00 $00 $00 $00 $00  $00 $00 $00 $00 $00 $00 $00 $00
  7976 5719 00 00 00 00 00 00 + .by  $00 $00 $00 $00 $00 $00 $00 $00  $00 $00 $00 $00 $00 $00 $00 $00  $00 $00 $00 $00 $00 $00 $00 $00
  7977 5731 00 00 00 00 00 00 + .by  $00 $00 $00 $00 $00 $00 $00 $00  $00 $00 $00 $00 $00 $00 $00 $00  $00 $00 $00 $00 $00 $00 $00 $00
  7978 5749 00 00 00 00 00 00 + .by  $00 $00 $00 $00 $00 $00 $00 $00  $00 $00 $00 $00 $00 $00 $00 $00  $00 $00 $00 $00 $00 $00 $00 $00
  7979 5761 00 00 00 00 00 00 + .by  $00 $00 $00 $00 $00 $00 $00 $00  $00 $00 $00 $00 $00 $00 $00 $00  $00 $00 $00 $00 $00 $00 $00 $00
  7980 5779 00 00 00 00 00 00 + .by  $00 $00 $00 $00 $00 $00 $00 $00  $00 $00 $00 $00 $00 $00 $00 $00  $00 $00 $00 $00 $00 $00 $00 $00
  7981 5791 00 00 00 00 00 00 + .by  $00 $00 $00 $00 $00 $00 $00 $00  $00 $00 $00 $00 $00 $00 $00 $00  $00 $00 $00 $00 $00 $00 $00 $00
  7982 57A9 00 00 00 00 00 00 + .by  $00 $00 $00 $00 $00 $00 $00 $00  $00 $00 $00 $00 $00 $00 $00 $00  $00 $00 $00 $00 $00 $00 $00 $00
  7983 57C1 00 00 00 00 00 00 + .by  $00 $00 $00 $00 $00 $00 $00 $00  $00 $00 $00 $00 $00 $00 $00 $00  $00 $00 $00 $00 $00 $00 $00 $00
  7984 57D9 00 00 00 00 00 00 + .by  $00 $00 $00 $00 $00 $00 $00 $00  $00 $00 $00 $00 $00 $00 $00 $00  $00 $00 $00 $00 $00 $00 $00 $00
  7985 57F1 00 00 00 00 00 00 + .by  $00 $00 $00 $00 $00 $00 $00 $00  $00 $00 $00 $00 $00 $00 $00 $00  $00 $00 $00 $00 $00 $00 $00 $00
  7986 5809 00 00 00 00 00 00 + .by  $00 $00 $00 $00 $00 $00 $00 $00  $00 $00 $00 $00 $00 $00 $00 $00  $00 $00 $00 $00 $00 $00 $00 $00
  7987 5821 00 00 00 00 00 00 + .by  $00 $00 $00 $00 $00 $00 $00 $00  $00 $00 $00 $00 $00 $00 $00 $00  $00 $00 $00 $00 $00 $00 $00 $00
  7988 5839 00 00 00 00 00 00 + .by  $00 $00 $00 $00 $00 $00 $00 $00  $00 $00 $00 $00 $00 $00 $00 $00  $00 $00 $00 $00 $00 $00 $00 $00
  7989 5851 00 00 00 00 00 00 + .by  $00 $00 $00 $00 $00 $00 $00 $00  $00 $00 $00 $00 $00 $00 $00 $00  $00 $00 $00 $00 $00 $00 $00 $00
  7990 5869 00 00 00 00 00 00 + .by  $00 $00 $00 $00 $00 $00 $00 $00  $00 $00 $00 $00 $00 $00 $00 $00  $00 $00 $00 $00 $00 $00 $00 $00
  7991 5881 00 00 00 00 00 00 + .by  $00 $00 $00 $00 $00 $00 $00 $00  $00 $00 $00 $00 $00 $00 $00 $00  $00 $00 $00 $00 $00 $00 $00 $00
  7992 5899 00 00 00 00 00 00 + .by  $00 $00 $00 $00 $00 $00 $00 $00  $00 $00 $00 $00 $00 $00 $00 $00  $00 $00 $00 $00 $00 $00 $00 $00
  7993 58B1 00 00 00 00 00 00 + .by  $00 $00 $00 $00 $00 $00 $00 $00  $00 $00 $00 $00 $00 $00 $00 $00  $00 $00 $00 $00 $00 $00 $00 $00
  7994 58C9 00 00 00 00 00 00 + .by  $00 $00 $00 $00 $00 $00 $00 $00  $00 $00 $00 $00 $00 $00 $00 $00  $00 $00 $00 $00 $00 $00 $00 $00
  7995 58E1 00 00 00 00 00 00 + .by  $00 $00 $00 $00 $00 $00 $00 $00  $00 $00 $00 $00 $00 $00 $00 $00  $00 $00 $00 $00 $00 $00 $00 $00
  7996 58F9 00 00 00 00 00 00 + .by  $00 $00 $00 $00 $00 $00 $00 $00  $00 $00 $00 $00 $00 $00 $00 $00  $00 $00 $00 $00 $00 $00 $00 $00
  7997 5911 00 00 00 00 00 00 + .by  $00 $00 $00 $00 $00 $00 $00 $00  $00 $00 $00 $00 $00 $00 $00 $00  $00 $00 $00 $00 $00 $00 $00 $00
  7998 5929 00 00 00 00 00 00 + .by  $00 $00 $00 $00 $00 $00 $00 $00  $00 $00 $00 $00 $00 $00 $00 $00  $00 $00 $00 $00 $00 $00 $00 $00
  7999 5941 00 00 00 00 00 00 + .by  $00 $00 $00 $00 $00 $00 $00 $00  $00 $00 $00 $00 $00 $00 $00 $00  $00 $00 $00 $00 $00 $00 $00 $00
  8000 5959 00 00 00 00 00 00 + .by  $00 $00 $00 $00 $00 $00 $00 $00  $00 $00 $00 $00 $00 $00 $00 $00  $00 $00 $00 $00 $00 $00 $00 $00
  8001 5971 00 00 00 00 00 00 + .by  $00 $00 $00 $00 $00 $00 $00 $00  $00 $00 $00 $00 $00 $00 $00 $00  $00 $00 $00 $00 $00 $00 $00 $00
  8002 5989 00 00 00 00 00 00 + .by  $00 $00 $00 $00 $00 $00 $00 $00  $00 $00 $00 $00 $00 $00 $00 $00  $00 $00 $00 $00 $00 $00 $00 $00
  8003 59A1 00 00 00 00 00 00 + .by  $00 $00 $00 $00 $00 $00 $00 $00  $00 $00 $00 $00 $00 $00 $00 $00  $00 $00 $00 $00 $00 $00 $00 $00
  8004 59B9 00 00 00 00 00 00 + .by  $00 $00 $00 $00 $00 $00 $00 $00  $00 $00 $00 $00 $00 $00 $00 $00  $00 $00 $00 $00 $00 $00 $00 $00
  8005 59D1 00 00 00 00 00 00 + .by  $00 $00 $00 $00 $00 $00 $00 $00  $00 $00 $00 $00 $00 $00 $00 $00  $00 $00 $00 $00 $00 $00 $00 $00
  8006 59E9 00 00 00 00 00 00 + .by  $00 $00 $00 $00 $00 $00 $00 $00  $00 $00 $00 $00 $00 $00 $00 $00  $00 $00 $00 $00 $00 $00 $00 $00
  8007 5A01 00 00 00 00 00 00 + .by  $00 $00 $00 $00 $00 $00 $00 $00  $00 $00 $00 $00 $00 $00 $00 $00  $00 $00 $00 $00 $00 $00 $00 $00
  8008 5A19 00 00 00 00 00 00 + .by  $00 $00 $00 $00 $00 $00 $00 $00  $00 $00 $00 $00 $00 $00 $00 $00  $00 $00 $00 $00 $00 $00 $00 $00
  8009 5A31 00 00 00 00 00 00 + .by  $00 $00 $00 $00 $00 $00 $00 $00  $00 $00 $00 $00 $00 $00 $00 $00  $00 $00 $00 $00 $00 $00 $00 $00
  8010 5A49 00 00 00 00 00 00 + .by  $00 $00 $00 $00 $00 $00 $00 $00  $00 $00 $00 $00 $00 $00 $00 $00  $00 $00 $00 $00 $00 $00 $00 $00
  8011 5A61 00 00 00 00 00 00 + .by  $00 $00 $00 $00 $00 $00 $00 $00  $00 $00 $00 $00 $00 $00 $00 $00  $00 $00 $00 $00 $00 $00 $00 $00
  8012 5A79 00 00 00 00 00 00 + .by  $00 $00 $00 $00 $00 $00 $00 $00  $00 $00 $00 $00 $00 $00 $00 $00  $00 $00 $00 $00 $00 $00 $00 $00
  8013 5A91 00 00 00 00 00 00 + .by  $00 $00 $00 $00 $00 $00 $00 $00  $00 $00 $00 $00 $00 $00 $00 $00  $00 $00 $00 $00 $00 $00 $00 $00
  8014 5AA9 00 00 00 00 00 00 + .by  $00 $00 $00 $00 $00 $00 $00 $00  $00 $00 $00 $00 $00 $00 $00 $00  $00 $00 $00 $00 $00 $00 $00 $00
  8015 5AC1 00 00 00 00 00 00 + .by  $00 $00 $00 $00 $00 $00 $00 $00  $00 $00 $00 $00 $00 $00 $00 $00  $00 $00 $00 $00 $00 $00 $00 $00
  8016 5AD9 00 00 00 00 00 00 + .by  $00 $00 $00 $00 $00 $00 $00 $00  $00 $00 $00 $00 $00 $00 $00 $00  $00 $00 $00 $00 $00 $00 $00 $00
  8017 5AF1 00 00 00 00 00 00 + .by  $00 $00 $00 $00 $00 $00 $00 $00  $00 $00 $00 $00 $00 $00 $00 $00  $00 $00 $00 $00 $00 $00 $00 $00
  8018 5B09 00 00 00 00 00 00 + .by  $00 $00 $00 $00 $00 $00 $00 $00  $00 $00 $00 $00 $00 $00 $00 $00  $00 $00 $00 $00 $00 $00 $00 $00
  8019 5B21 00 00 00 00 00 00 + .by  $00 $00 $00 $00 $00 $00 $00 $00  $00 $00 $00 $00 $00 $00 $00 $00  $00 $00 $00 $00 $00 $00 $00 $00
  8020 5B39 00 00 00 00 00 00 + .by  $00 $00 $00 $00 $00 $00 $00 $00  $00 $00 $00 $00 $00 $00 $00 $00  $00 $00 $00 $00 $00 $00 $00 $00
  8021 5B51 00 00 00 00 00 00 + .by  $00 $00 $00 $00 $00 $00 $00 $00  $00 $00 $00 $00 $00 $00 $00 $00  $00 $00 $00 $00 $00 $00 $00 $00
  8022 5B69 00 00 00 00 00 00 + .by  $00 $00 $00 $00 $00 $00 $00 $00  $00 $00 $00 $00 $00 $00 $00 $00  $00 $00 $00 $00 $00 $00 $00 $00
  8023 5B81 00 00 00 00 00 00 + .by  $00 $00 $00 $00 $00 $00 $00 $00  $00 $00 $00 $00 $00 $00 $00 $00  $00 $00 $00 $00 $00 $00 $00 $00
  8024 5B99 00 00 00 00 00 00 + .by  $00 $00 $00 $00 $00 $00 $00 $00  $00 $00 $00 $00 $00 $00 $00 $00  $00 $00 $00 $00 $00 $00 $00 $00
  8025 5BB1 00 00 00 00 00 00 + .by  $00 $00 $00 $00 $00 $00 $00 $00  $00 $00 $00 $00 $00 $00 $00 $00  $00 $00 $00 $00 $00 $00 $00 $00
  8026 5BC9 00 00 00 00 00 00 + .by  $00 $00 $00 $00 $00 $00 $00 $00  $00 $00 $00 $00 $00 $00 $00 $00  $00 $00 $00 $00 $00 $00 $00 $00
  8027 5BE1 00 00 00 00 00 00 + .by  $00 $00 $00 $00 $00 $00 $00 $00  $00 $00 $00 $00 $00 $00 $00 $00  $00 $00 $00 $00 $00 $00 $00 $00
  8028 5BF9 00 00 00 00 00 00 + .by  $00 $00 $00 $00 $00 $00 $00 $00  $00 $00 $00 $00 $00 $00 $00 $00  $00 $00 $00 $00 $00 $00 $00 $00
  8029 5C11 00 00 00 00 00 00 + .by  $00 $00 $00 $00 $00 $00 $00 $00  $00 $00 $00 $00 $00 $00 $00 $00  $00 $00 $00 $00 $00 $00 $00 $00
  8030 5C29 00 00 00 00 00 00 + .by  $00 $00 $00 $00 $00 $00 $00 $00  $00 $00 $00 $00 $00 $00 $00 $00  $00 $00 $00 $00 $00 $00 $00 $00
  8031 5C41 00 00 00 00 00 00 + .by  $00 $00 $00 $00 $00 $00 $00 $00  $00 $00 $00 $00 $00 $00 $00 $00  $00 $00 $00 $00 $00 $00 $00 $00
  8032 5C59 00 00 00 00 00 00 + .by  $00 $00 $00 $00 $00 $00 $00 $00  $00 $00 $00 $00 $00 $00 $00 $00  $00 $00 $00 $00 $00 $00 $00 $00
  8033 5C71 00 00 00 00 00 00 + .by  $00 $00 $00 $00 $00 $00 $00 $00  $00 $00 $00 $00 $00 $00 $00 $00  $00 $00 $00 $00 $00 $00 $00 $00
  8034 5C89 00 00 00 00 00 00 + .by  $00 $00 $00 $00 $00 $00 $00 $00  $00 $00 $00 $00 $00 $00 $00 $00  $00 $00 $00 $00 $00 $00 $00 $00
  8035 5CA1 00 00 00 00 00 00 + .by  $00 $00 $00 $00 $00 $00 $00 $00  $00 $00 $00 $00 $00 $00 $00 $00  $00 $00 $00 $00 $00 $00 $00 $00
  8036 5CB9 00 00 00 00 00 00 + .by  $00 $00 $00 $00 $00 $00 $00 $00  $00 $00 $00 $00 $00 $00 $00 $00  $00 $00 $00 $00 $00 $00 $00 $00
  8037 5CD1 00 00 00 00 00 00 + .by  $00 $00 $00 $00 $00 $00 $00 $00  $00 $00 $00 $00 $00 $00 $00 $00  $00 $00 $00 $00 $00 $00 $00 $00
  8038 5CE9 00 00 00 00 00 00 + .by  $00 $00 $00 $00 $00 $00 $00 $00  $00 $00 $00 $00 $00 $00 $00 $00  $00 $00 $00 $00 $00 $00 $00 $00
  8039 5D01 00 00 00 00 00 00 + .by  $00 $00 $00 $00 $00 $00 $00 $00  $00 $00 $00 $00 $00 $00 $00 $00  $00 $00 $00 $00 $00 $00 $00 $00
  8040 5D19 00 00 00 00 00 00 + .by  $00 $00 $00 $00 $00 $00 $00 $00  $00 $00 $00 $00 $00 $00 $00 $00  $00 $00 $00 $00 $00 $00 $00 $00
  8041 5D31 00 00 00 00 00 00 + .by  $00 $00 $00 $00 $00 $00 $00 $00  $00 $00 $00 $00 $00 $00 $00 $00  $00 $00 $00 $00 $00 $00 $00 $00
  8042 5D49 00 00 00 00 00 00 + .by  $00 $00 $00 $00 $00 $00 $00 $00  $00 $00 $00 $00 $00 $00 $00 $00  $00 $00 $00 $00 $00 $00 $00 $00
  8043 5D61 00 00 00 00 00 00 + .by  $00 $00 $00 $00 $00 $00 $00 $00  $00 $00 $00 $00 $00 $00 $00 $00  $00 $00 $00 $00 $00 $00 $00 $00
  8044 5D79 00 00 00 00 00 00 + .by  $00 $00 $00 $00 $00 $00 $00 $00  $00 $00 $00 $00 $00 $00 $00 $00  $00 $00 $00 $00 $00 $00 $00 $00
  8045 5D91 00 00 00 00 00 00 + .by  $00 $00 $00 $00 $00 $00 $00 $00  $00 $00 $00 $00 $00 $00 $00 $00  $00 $00 $00 $00 $00 $00 $00 $00
  8046 5DA9 00 00 00 00 00 00 + .by  $00 $00 $00 $00 $00 $00 $00 $00  $00 $00 $00 $00 $00 $00 $00 $00  $00 $00 $00 $00 $00 $00 $00 $00
  8047 5DC1 00 00 00 00 00 00 + .by  $00 $00 $00 $00 $00 $00 $00 $00  $00 $00 $00 $00 $00 $00 $00 $00  $00 $00 $00 $00 $00 $00 $00 $00
  8048 5DD9 00 00 00 00 00 00 + .by  $00 $00 $00 $00 $00 $00 $00 $00  $00 $00 $00 $00 $00 $00 $00 $00  $00 $00 $00 $00 $00 $00 $00 $00
  8049 5DF1 00 00 00 00 00 00 + .by  $00 $00 $00 $00 $00 $00 $00 $00  $00 $00 $00 $00 $00 $00 $00 $00  $00 $00 $00 $00 $00 $00 $00 $00
  8050 5E09 00 00 00 00 00 00 + .by  $00 $00 $00 $00 $00 $00 $00 $00  $00 $00 $00 $00 $00 $00 $00 $00  $00 $00 $00 $00 $00 $00 $00 $00
  8051 5E21 00 00 00 00 00 00 + .by  $00 $00 $00 $00 $00 $00 $00 $00  $00 $00 $00 $00 $00 $00 $00 $00  $00 $00 $00 $00 $00 $00 $00 $00
  8052 5E39 00 00 00 00 00 00 + .by  $00 $00 $00 $00 $00 $00 $00 $00  $00 $00 $00 $00 $00 $00 $00 $00  $00 $00 $00 $00 $00 $00 $00 $00
  8053 5E51 00 00 00 00 00 00 + .by  $00 $00 $00 $00 $00 $00 $00 $00  $00 $00 $00 $00 $00 $00 $00 $00  $00 $00 $00 $00 $00 $00 $00 $00
  8054 5E69 00 00 00 00 00 00 + .by  $00 $00 $00 $00 $00 $00 $00 $00  $00 $00 $00 $00 $00 $00 $00 $00  $00 $00 $00 $00 $00 $00 $00 $00
  8055 5E81 00 00 00 00 00 00 + .by  $00 $00 $00 $00 $00 $00 $00 $00  $00 $00 $00 $00 $00 $00 $00 $00  $00 $00 $00 $00 $00 $00 $00 $00
  8056 5E99 00 00 00 00 00 00 + .by  $00 $00 $00 $00 $00 $00 $00 $00  $00 $00 $00 $00 $00 $00 $00 $00  $00 $00 $00 $00 $00 $00 $00 $00
  8057 5EB1 00 00 00 00 00 00 + .by  $00 $00 $00 $00 $00 $00 $00 $00  $00 $00 $00 $00 $00 $00 $00 $00  $00 $00 $00 $00 $00 $00 $00 $00
  8058 5EC9 00 00 00 00 00 00 + .by  $00 $00 $00 $00 $00 $00 $00 $00  $00 $00 $00 $00 $00 $00 $00 $00  $00 $00 $00 $00 $00 $00 $00 $00
  8059 5EE1 00 00 00 00 00 00 + .by  $00 $00 $00 $00 $00 $00 $00 $00  $00 $00 $00 $00 $00 $00 $00 $00  $00 $00 $00 $00 $00 $00 $00 $00
  8060 5EF9 00 00 00 00 00 00 + .by  $00 $00 $00 $00 $00 $00 $00 $00  $00 $00 $00 $00 $00 $00 $00 $00  $00 $00 $00 $00 $00 $00 $00 $00
  8061 5F11 00 00 00 00 00 00 + .by  $00 $00 $00 $00 $00 $00 $00 $00  $00 $00 $00 $00 $00 $00 $00 $00  $00 $00 $00 $00 $00 $00 $00 $00
  8062 5F29 00 00 00 00 00 00 + .by  $00 $00 $00 $00 $00 $00 $00 $00  $00 $00 $00 $00 $00 $00 $00 $00  $00 $00 $00 $00 $00 $00 $00 $00
  8063 5F41 00 00 00 00 00 00 + .by  $00 $00 $00 $00 $00 $00 $00 $00  $00 $00 $00 $00 $00 $00 $00 $00  $00 $00 $00 $00 $00 $00 $00 $00
  8064 5F59 00 00 00 00 00 00 + .by  $00 $00 $00 $00 $00 $00 $00 $00  $00 $00 $00 $00 $00 $00 $00 $00  $00 $00 $00 $00 $00 $00 $00 $00
  8065 5F71 00 00 00 00 00 00 + .by  $00 $00 $00 $00 $00 $00 $00 $00  $00 $00 $00 $00 $00 $00 $00 $00  $00 $00 $00 $00 $00 $00 $00 $00
  8066 5F89 00 00 00 00 00 00 + .by  $00 $00 $00 $00 $00 $00 $00 $00  $00 $00 $00 $00 $00 $00 $00 $00  $00 $00 $00 $00 $00 $00 $00 $00
  8067 5FA1 00 00 00 00 00 00 + .by  $00 $00 $00 $00 $00 $00 $00 $00  $00 $00 $00 $00 $00 $00 $00 $00  $00 $00 $00 $00 $00 $00 $00 $00
  8068 5FB9 00 00 00 00 00 00 + .by  $00 $00 $00 $00 $00 $00 $00 $00  $00 $00 $00 $00 $00 $00 $00 $00  $00 $00 $00 $00 $00 $00 $00 $00
  8069 5FD1 00 00 00 00 00 00 + .by  $00 $00 $00 $00 $00 $00 $00 $00  $00 $00 $00 $00 $00 $00 $00 $00  $00 $00 $00 $00 $00 $00 $00 $00
  8070 5FE9 00 00 00 00 00 00 + .by  $00 $00 $00 $00 $00 $00 $00 $00  $00 $00 $00 $00 $00 $00 $00 $00  $00 $00 $00 $00 $00 $00 $00 $00
  8071 6001 00 00 00 00 00 00 + .by  $00 $00 $00 $00 $00 $00 $00 $00  $00 $00 $00 $00 $00 $00 $00 $00  $00 $00 $00 $00 $00 $00 $00 $00
  8072 6019 00 00 00 00 00 00 + .by  $00 $00 $00 $00 $00 $00 $00 $00  $00 $00 $00 $00 $00 $00 $00 $00  $00 $00 $00 $00 $00 $00 $00 $00
  8073 6031 00 00 00 00 00 00 + .by  $00 $00 $00 $00 $00 $00 $00 $00  $00 $00 $00 $00 $00 $00 $00 $00  $00 $00 $00 $00 $00 $00 $00 $00
  8074 6049 00 00 00 00 00 00 + .by  $00 $00 $00 $00 $00 $00 $00 $00  $00 $00 $00 $00 $00 $00 $00 $00  $00 $00 $00 $00 $00 $00 $00 $00
  8075 6061 00 00 00 00 00 00 + .by  $00 $00 $00 $00 $00 $00 $00 $00  $00 $00 $00 $00 $00 $00 $00 $00  $00 $00 $00 $00 $00 $00 $00 $00
  8076 6079 00 00 00 00 00 00 + .by  $00 $00 $00 $00 $00 $00 $00 $00  $00 $00 $00 $00 $00 $00 $00 $00  $00 $00 $00 $00 $00 $00 $00 $00
  8077 6091 00 00 00 00 00 00 + .by  $00 $00 $00 $00 $00 $00 $00 $00  $00 $00 $00 $00 $00 $00 $00 $00  $00 $00 $00 $00 $00 $00 $00 $00
  8078 60A9 00 00 00 00 00 00 + .by  $00 $00 $00 $00 $00 $00 $00 $00  $00 $00 $00 $00 $00 $00 $00 $00  $00 $00 $00 $00 $00 $00 $00 $00
  8079 60C1 00 00 00 00 00 00 + .by  $00 $00 $00 $00 $00 $00 $00 $00  $00 $00 $00 $00 $00 $00 $00 $00  $00 $00 $00 $00 $00 $00 $00 $00
  8080 60D9 00 00 00 00 00 00 + .by  $00 $00 $00 $00 $00 $00 $00 $00  $00 $00 $00 $00 $00 $00 $00 $00  $00 $00 $00 $00 $00 $00 $00 $00
  8081 60F1 00 00 00 00 00 00 + .by  $00 $00 $00 $00 $00 $00 $00 $00  $00 $00 $00 $00 $00 $00 $00 $00  $00 $00 $00 $00 $00 $00 $00 $00
  8082 6109 00 00 00 00 00 00 + .by  $00 $00 $00 $00 $00 $00 $00 $00  $00 $00 $00 $00 $00 $00 $00 $00  $00 $00 $00 $00 $00 $00 $00 $00
  8083 6121 00 00 00 00 00 00 + .by  $00 $00 $00 $00 $00 $00 $00 $00  $00 $00 $00 $00 $00 $00 $00 $00  $00 $00 $00 $00 $00 $00 $00 $00
  8084 6139 00 00 00 00 00 00 + .by  $00 $00 $00 $00 $00 $00 $00 $00  $00 $00 $00 $00 $00 $00 $00 $00  $00 $00 $00 $00 $00 $00 $00 $00
  8085 6151 00 00 00 00 00 00 + .by  $00 $00 $00 $00 $00 $00 $00 $00  $00 $00 $00 $00 $00 $00 $00 $00  $00 $00 $00 $00 $00 $00 $00 $00
  8086 6169 00 00 00 00 00 00 + .by  $00 $00 $00 $00 $00 $00 $00 $00  $00 $00 $00 $00 $00 $00 $00 $00  $00 $00 $00 $00 $00 $00 $00 $00
  8087 6181 00 00 00 00 00 00 + .by  $00 $00 $00 $00 $00 $00 $00 $00  $00 $00 $00 $00 $00 $00 $00 $00  $00 $00 $00 $00 $00 $00 $00 $00
  8088 6199 00 00 00 00 00 00 + .by  $00 $00 $00 $00 $00 $00 $00 $00  $00 $00 $00 $00 $00 $00 $00 $00  $00 $00 $00 $00 $00 $00 $00 $00
  8089 61B1 00 00 00 00 00 00 + .by  $00 $00 $00 $00 $00 $00 $00 $00  $00 $00 $00 $00 $00 $00 $00 $00  $00 $00 $00 $00 $00 $00 $00 $00
  8090 61C9 00 00 00 00 00 00 + .by  $00 $00 $00 $00 $00 $00 $00 $00  $00 $00 $00 $00 $00 $00 $00 $00  $00 $00 $00 $00 $00 $00 $00 $00
  8091 61E1 00 00 00 00 00 00 + .by  $00 $00 $00 $00 $00 $00 $00 $00  $00 $00 $00 $00 $00 $00 $00 $00  $00 $00 $00 $00 $00 $00 $00 $00
  8092 61F9 00 00 00 00 00 00 + .by  $00 $00 $00 $00 $00 $00 $00 $00  $00 $00 $00 $00 $00 $00 $00 $00  $00 $00 $00 $00 $00 $00 $00 $00
  8093 6211 00 00 00 00 00 00 + .by  $00 $00 $00 $00 $00 $00 $00 $00  $00 $00 $00 $00 $00 $00 $00 $00  $00 $00 $00 $00 $00 $00 $00 $00
  8094 6229 00 00 00 00 00 00 + .by  $00 $00 $00 $00 $00 $00 $00 $00  $00 $00 $00 $00 $00 $00 $00 $00  $00 $00 $00 $00 $00 $00 $00 $00
  8095 6241 00 00 00 00 00 00 + .by  $00 $00 $00 $00 $00 $00 $00 $00  $00 $00 $00 $00 $00 $00 $00 $00  $00 $00 $00 $00 $00 $00 $00 $00
  8096 6259 00 00 00 00 00 00 + .by  $00 $00 $00 $00 $00 $00 $00 $00  $00 $00 $00 $00 $00 $00 $00 $00  $00 $00 $00 $00 $00 $00 $00 $00
  8097 6271 00 00 00 00 00 00 + .by  $00 $00 $00 $00 $00 $00 $00 $00  $00 $00 $00 $00 $00 $00 $00 $00  $00 $00 $00 $00 $00 $00 $00 $00
  8098 6289 00 00 00 00 00 00 + .by  $00 $00 $00 $00 $00 $00 $00 $00  $00 $00 $00 $00 $00 $00 $00 $00  $00 $00 $00 $00 $00 $00 $00 $00
  8099 62A1 00 00 00 00 00 00 + .by  $00 $00 $00 $00 $00 $00 $00 $00  $00 $00 $00 $00 $00 $00 $00 $00  $00 $00 $00 $00 $00 $00 $00 $00
  8100 62B9 00 00 00 00 00 00 + .by  $00 $00 $00 $00 $00 $00 $00 $00  $00 $00 $00 $00 $00 $00 $00 $00  $00 $00 $00 $00 $00 $00 $00 $00
  8101 62D1 00 00 00 00 00 00 + .by  $00 $00 $00 $00 $00 $00 $00 $00  $00 $00 $00 $00 $00 $00 $00 $00  $00 $00 $00 $00 $00 $00 $00 $00
  8102 62E9 00 00 00 00 00 00 + .by  $00 $00 $00 $00 $00 $00 $00 $00  $00 $00 $00 $00 $00 $00 $00 $00  $00 $00 $00 $00 $00 $00 $00 $00
  8103 6301 00 00 00 00 00 00 + .by  $00 $00 $00 $00 $00 $00 $00 $00  $00 $00 $00 $00 $00 $00 $00 $00  $00 $00 $00 $00 $00 $00 $00 $00
  8104 6319 00 00 00 00 00 00 + .by  $00 $00 $00 $00 $00 $00 $00 $00  $00 $00 $00 $00 $00 $00 $00 $00  $00 $00 $00 $00 $00 $00 $00 $00
  8105 6331 00 00 00 00 00 00 + .by  $00 $00 $00 $00 $00 $00 $00 $00  $00 $00 $00 $00 $00 $00 $00 $00  $00 $00 $00 $00 $00 $00 $00 $00
  8106 6349 00 00 00 00 00 00 + .by  $00 $00 $00 $00 $00 $00 $00 $00  $00 $00 $00 $00 $00 $00 $00 $00  $00 $00 $00 $00 $00 $00 $00 $00
  8107 6361 00 00 00 00 00 00 + .by  $00 $00 $00 $00 $00 $00 $00 $00  $00 $00 $00 $00 $00 $00 $00 $00  $00 $00 $00 $00 $00 $00 $00 $00
  8108 6379 00 00 00 00 00 00 + .by  $00 $00 $00 $00 $00 $00 $00 $00  $00 $00 $00 $00 $00 $00 $00 $00  $00 $00 $00 $00 $00 $00 $00 $00
  8109 6391 00 00 00 00 00 00 + .by  $00 $00 $00 $00 $00 $00 $00 $00  $00 $00 $00 $00 $00 $00 $00 $00  $00 $00 $00 $00 $00 $00 $00 $00
  8110 63A9 00 00 00 00 00 00 + .by  $00 $00 $00 $00 $00 $00 $00 $00  $00 $00 $00 $00 $00 $00 $00 $00  $00 $00 $00 $00 $00 $00 $00 $00
  8111 63C1 00 00 00 00 00 00 + .by  $00 $00 $00 $00 $00 $00 $00 $00  $00 $00 $00 $00 $00 $00 $00 $00  $00 $00 $00 $00 $00 $00 $00 $00
  8112 63D9 00 00 00 00 00 00 + .by  $00 $00 $00 $00 $00 $00 $00 $00  $00 $00 $00 $00 $00 $00 $00 $00  $00 $00 $00 $00 $00 $00 $00 $00
  8113 63F1 00 00 00 00 00 00 + .by  $00 $00 $00 $00 $00 $00 $00 $00  $00 $00 $00 $00 $00 $00 $00 $00  $00 $00 $00 $00 $00 $00 $00 $00
  8114 6409 00 00 00 00 00 00 + .by  $00 $00 $00 $00 $00 $00 $00 $00  $00 $00 $00 $00 $00 $00 $00 $00  $00 $00 $00 $00 $00 $00 $00 $00
  8115 6421 00 00 00 00 00 00 + .by  $00 $00 $00 $00 $00 $00 $00 $00  $00 $00 $00 $00 $00 $00 $00 $00  $00 $00 $00 $00 $00 $00 $00 $00
  8116 6439 00 00 00 00 00 00 + .by  $00 $00 $00 $00 $00 $00 $00 $00  $00 $00 $00 $00 $00 $00 $00 $00  $00 $00 $00 $00 $00 $00 $00 $00
  8117 6451 00 00 00 00 00 00 + .by  $00 $00 $00 $00 $00 $00 $00 $00  $00 $00 $00 $00 $00 $00 $00 $00  $00 $00 $00 $00 $00 $00 $00 $00
  8118 6469 00 00 00 00 00 00 + .by  $00 $00 $00 $00 $00 $00 $00 $00  $00 $00 $00 $00 $00 $00 $00 $00  $00 $00 $00 $00 $00 $00 $00 $00
  8119 6481 00 00 00 00 00 00 + .by  $00 $00 $00 $00 $00 $00 $00 $00  $00 $00 $00 $00 $00 $00 $00 $00  $00 $00 $00 $00 $00 $00 $00 $00
  8120 6499 00 00 00 00 00 00 + .by  $00 $00 $00 $00 $00 $00 $00 $00  $00 $00 $00 $00 $00 $00 $00 $00  $00 $00 $00 $00 $00 $00 $00 $00
  8121 64B1 00 00 00 00 00 00 + .by  $00 $00 $00 $00 $00 $00 $00 $00  $00 $00 $00 $00 $00 $00 $00 $00  $00 $00 $00 $00 $00 $00 $00 $00
  8122 64C9 00 00 00 00 00 00 + .by  $00 $00 $00 $00 $00 $00 $00 $00  $00 $00 $00 $00 $00 $00 $00 $00  $00 $00 $00 $00 $00 $00 $00 $00
  8123 64E1 00 00 00 00 00 00 + .by  $00 $00 $00 $00 $00 $00 $00 $00  $00 $00 $00 $00 $00 $00 $00 $00  $00 $00 $00 $00 $00 $00 $00 $00
  8124 64F9 00 00 00 00 00 00 + .by  $00 $00 $00 $00 $00 $00 $00 $00  $00 $00 $00 $00 $00 $00 $00 $00  $00 $00 $00 $00 $00 $00 $00 $00
  8125 6511 00 00 00 00 00 00 + .by  $00 $00 $00 $00 $00 $00 $00 $00  $00 $00 $00 $00 $00 $00 $00 $00  $00 $00 $00 $00 $00 $00 $00 $00
  8126 6529 00 00 00 00 00 00 + .by  $00 $00 $00 $00 $00 $00 $00 $00  $00 $00 $00 $00 $00 $00 $00 $00  $00 $00 $00 $00 $00 $00 $00 $00
  8127 6541 00 00 00 00 00 00 + .by  $00 $00 $00 $00 $00 $00 $00 $00  $00 $00 $00 $00 $00 $00 $00 $00  $00 $00 $00 $00 $00 $00 $00 $00
  8128 6559 00 00 00 00 00 00 + .by  $00 $00 $00 $00 $00 $00 $00 $00  $00 $00 $00 $00 $00 $00 $00 $00  $00 $00 $00 $00 $00 $00 $00 $00
  8129 6571 00 00 00 00 00 00 + .by  $00 $00 $00 $00 $00 $00 $00 $00  $00 $00 $00 $00 $00 $00 $00 $00  $00 $00 $00 $00 $00 $00 $00 $00
  8130 6589 00 00 00 00 00 00 + .by  $00 $00 $00 $00 $00 $00 $00 $00  $00 $00 $00 $00 $00 $00 $00 $00  $00 $00 $00 $00 $00 $00 $00 $00
  8131 65A1 00 00 00 00 00 00 + .by  $00 $00 $00 $00 $00 $00 $00 $00  $00 $00 $00 $00 $00 $00 $00 $00  $00 $00 $00 $00 $00 $00 $00 $00
  8132 65B9 00 00 00 00 00 00 + .by  $00 $00 $00 $00 $00 $00 $00 $00  $00 $00 $00 $00 $00 $00 $00 $00  $00 $00 $00 $00 $00 $00 $00 $00
  8133 65D1 00 00 00 00 00 00 + .by  $00 $00 $00 $00 $00 $00 $00 $00  $00 $00 $00 $00 $00 $00 $00 $00  $00 $00 $00 $00 $00 $00 $00 $00
  8134 65E9 00 00 00 00 00 00 + .by  $00 $00 $00 $00 $00 $00 $00 $00  $00 $00 $00 $00 $00 $00 $00 $00  $00 $00 $00 $00 $00 $00 $00 $00
  8135 6601 00 00 00 00 00 00 + .by  $00 $00 $00 $00 $00 $00 $00 $00  $00 $00 $00 $00 $00 $00 $00 $00  $00 $00 $00 $00 $00 $00 $00 $00
  8136 6619 00 00 00 00 00 00 + .by  $00 $00 $00 $00 $00 $00 $00 $00  $00 $00 $00 $00 $00 $00 $00 $00  $00 $00 $00 $00 $00 $00 $00 $00
  8137 6631 00 00 00 00 00 00 + .by  $00 $00 $00 $00 $00 $00 $00 $00  $00 $00 $00 $00 $00 $00 $00 $00  $00 $00 $00 $00 $00 $00 $00 $00
  8138 6649 00 00 00 00 00 00 + .by  $00 $00 $00 $00 $00 $00 $00 $00  $00 $00 $00 $00 $00 $00 $00 $00  $00 $00 $00 $00 $00 $00 $00 $00
  8139 6661 00 00 00 00 00 00 + .by  $00 $00 $00 $00 $00 $00 $00 $00  $00 $00 $00 $00 $00 $00 $00 $00  $00 $00 $00 $00 $00 $00 $00 $00
  8140 6679 00 00 00 00 00 00 + .by  $00 $00 $00 $00 $00 $00 $00 $00  $00 $00 $00 $00 $00 $00 $00 $00  $00 $00 $00 $00 $00 $00 $00 $00
  8141 6691 00 00 00 00 00 00 + .by  $00 $00 $00 $00 $00 $00 $00 $00  $00 $00 $00 $00 $00 $00 $00 $00  $00 $00 $00 $00 $00 $00 $00 $00
  8142 66A9 00 00 00 00 00 00 + .by  $00 $00 $00 $00 $00 $00 $00 $00  $00 $00 $00 $00 $00 $00 $00 $00  $00 $00 $00 $00 $00 $00 $00 $00
  8143 66C1 00 00 00 00 00 00 + .by  $00 $00 $00 $00 $00 $00 $00 $00  $00 $00 $00 $00 $00 $00 $00 $00  $00 $00 $00 $00 $00 $00 $00 $00
  8144 66D9 00 00 00 00 00 00 + .by  $00 $00 $00 $00 $00 $00 $00 $00  $00 $00 $00 $00 $00 $00 $00 $00  $00 $00 $00 $00 $00 $00 $00 $00
  8145 66F1 00 00 00 00 00 00 + .by  $00 $00 $00 $00 $00 $00 $00 $00  $00 $00 $00 $00 $00 $00 $00 $00  $00 $00 $00 $00 $00 $00 $00 $00
  8146 6709 00 00 00 00 00 00 + .by  $00 $00 $00 $00 $00 $00 $00 $00  $00 $00 $00 $00 $00 $00 $00 $00  $00 $00 $00 $00 $00 $00 $00 $00
  8147 6721 00 00 00 00 00 00 + .by  $00 $00 $00 $00 $00 $00 $00 $00  $00 $00 $00 $00 $00 $00 $00 $00  $00 $00 $00 $00 $00 $00 $00 $00
  8148 6739 00 00 00 00 00 00 + .by  $00 $00 $00 $00 $00 $00 $00 $00  $00 $00 $00 $00 $00 $00 $00 $00  $00 $00 $00 $00 $00 $00 $00 $00
  8149 6751 00 00 00 00 00 00 + .by  $00 $00 $00 $00 $00 $00 $00 $00  $00 $00 $00 $00 $00 $00 $00 $00  $00 $00 $00 $00 $00 $00 $00 $00
  8150 6769 00 00 00 00 00 00 + .by  $00 $00 $00 $00 $00 $00 $00 $00  $00 $00 $00 $00 $00 $00 $00 $00  $00 $00 $00 $00 $00 $00 $00 $00
  8151 6781 00 00 00 00 00 00 + .by  $00 $00 $00 $00 $00 $00 $00 $00  $00 $00 $00 $00 $00 $00 $00 $00  $00 $00 $00 $00 $00 $00 $00 $00
  8152 6799 00 00 00 00 00 00 + .by  $00 $00 $00 $00 $00 $00 $00 $00  $00 $00 $00 $00 $00 $00 $00 $00  $00 $00 $00 $00 $00 $00 $00 $00
  8153 67B1 00 00 00 00 00 00 + .by  $00 $00 $00 $00 $00 $00 $00 $00  $00 $00 $00 $00 $00 $00 $00 $00  $00 $00 $00 $00 $00 $00 $00 $00
  8154 67C9 00 00 00 00 00 00 + .by  $00 $00 $00 $00 $00 $00 $00 $00  $00 $00 $00 $00 $00 $00 $00 $00  $00 $00 $00 $00 $00 $00 $00 $00
  8155 67E1 00 00 00 00 00 00 + .by  $00 $00 $00 $00 $00 $00 $00 $00  $00 $00 $00 $00 $00 $00 $00 $00  $00 $00 $00 $00 $00 $00 $00 $00
  8156 67F9 00 00 00 00 00 00 + .by  $00 $00 $00 $00 $00 $00 $00 $00  $00 $00 $00 $00 $00 $00 $00 $00  $00 $00 $00 $00 $00 $00 $00 $00
  8157 6811 00 00 00 00 00 00 + .by  $00 $00 $00 $00 $00 $00 $00 $00  $00 $00 $00 $00 $00 $00 $00 $00  $00 $00 $00 $00 $00 $00 $00 $00
  8158 6829 00 00 00 00 00 00 + .by  $00 $00 $00 $00 $00 $00 $00 $00  $00 $00 $00 $00 $00 $00 $00 $00  $00 $00 $00 $00 $00 $00 $00 $00
  8159 6841 00 00 00 00 00 00 + .by  $00 $00 $00 $00 $00 $00 $00 $00  $00 $00 $00 $00 $00 $00 $00 $00  $00 $00 $00 $00 $00 $00 $00 $00
  8160 6859 00 00 00 00 00 00 + .by  $00 $00 $00 $00 $00 $00 $00 $00  $00 $00 $00 $00 $00 $00 $00 $00  $00 $00 $00 $00 $00 $00 $00 $00
  8161 6871 00 00 00 00 00 00 + .by  $00 $00 $00 $00 $00 $00 $00 $00  $00 $00 $00 $00 $00 $00 $00 $00  $00 $00 $00 $00 $00 $00 $00 $00
  8162 6889 00 00 00 00 00 00 + .by  $00 $00 $00 $00 $00 $00 $00 $00  $00 $00 $00 $00 $00 $00 $00 $00  $00 $00 $00 $00 $00 $00 $00 $00
  8163 68A1 00 00 00 00 00 00 + .by  $00 $00 $00 $00 $00 $00 $00 $00  $00 $00 $00 $00 $00 $00 $00 $00  $00 $00 $00 $00 $00 $00 $00 $00
  8164 68B9 00 00 00 00 00 00 + .by  $00 $00 $00 $00 $00 $00 $00 $00  $00 $00 $00 $00 $00 $00 $00 $00  $00 $00 $00 $00 $00 $00 $00 $00
  8165 68D1 00 00 00 00 00 00 + .by  $00 $00 $00 $00 $00 $00 $00 $00  $00 $00 $00 $00 $00 $00 $00 $00  $00 $00 $00 $00 $00 $00 $00 $00
  8166 68E9 00 00 00 00 00 00 + .by  $00 $00 $00 $00 $00 $00 $00 $00  $00 $00 $00 $00 $00 $00 $00 $00  $00 $00 $00 $00 $00 $00 $00 $00
  8167 6901 00 00 00 00 00 00 + .by  $00 $00 $00 $00 $00 $00 $00 $00  $00 $00 $00 $00 $00 $00 $00 $00  $00 $00 $00 $00 $00 $00 $00 $00
  8168 6919 00 00 00 00 00 00 + .by  $00 $00 $00 $00 $00 $00 $00 $00  $00 $00 $00 $00 $00 $00 $00 $00  $00 $00 $00 $00 $00 $00 $00 $00
  8169 6931 00 00 00 00 00 00 + .by  $00 $00 $00 $00 $00 $00 $00 $00  $00 $00 $00 $00 $00 $00 $00 $00  $00 $00 $00 $00 $00 $00 $00 $00
  8170 6949 00 00 00 00 00 00 + .by  $00 $00 $00 $00 $00 $00 $00 $00  $00 $00 $00 $00 $00 $00 $00 $00  $00 $00 $00 $00 $00 $00 $00 $00
  8171 6961 00 00 00 00 00 00 + .by  $00 $00 $00 $00 $00 $00 $00 $00  $00 $00 $00 $00 $00 $00 $00 $00  $00 $00 $00 $00 $00 $00 $00 $00
  8172 6979 00 00 00 00 00 00 + .by  $00 $00 $00 $00 $00 $00 $00 $00  $00 $00 $00 $00 $00 $00 $00 $00  $00 $00 $00 $00 $00 $00 $00 $00
  8173 6991 00 00 00 00 00 00 + .by  $00 $00 $00 $00 $00 $00 $00 $00  $00 $00 $00 $00 $00 $00 $00 $00  $00 $00 $00 $00 $00 $00 $00 $00
  8174 69A9 00 00 00 00 00 00 + .by  $00 $00 $00 $00 $00 $00 $00 $00  $00 $00 $00 $00 $00 $00 $00 $00  $00 $00 $00 $00 $00 $00 $00 $00
  8175 69C1 00 00 00 00 00 00 + .by  $00 $00 $00 $00 $00 $00 $00 $00  $00 $00 $00 $00 $00 $00 $00 $00  $00 $00 $00 $00 $00 $00 $00 $00
  8176 69D9 00 00 00 00 00 00 + .by  $00 $00 $00 $00 $00 $00 $00 $00  $00 $00 $00 $00 $00 $00 $00 $00  $00 $00 $00 $00 $00 $00 $00 $00
  8177 69F1 00 00 00 00 00 00 + .by  $00 $00 $00 $00 $00 $00 $00 $00  $00 $00 $00 $00 $00 $00 $00 $00  $00 $00 $00 $00 $00 $00 $00 $00
  8178 6A09 00 00 00 00 00 00 + .by  $00 $00 $00 $00 $00 $00 $00 $00  $00 $00 $00 $00 $00 $00 $00 $00  $00 $00 $00 $00 $00 $00 $00 $00
  8179 6A21 00 00 00 00 00 00 + .by  $00 $00 $00 $00 $00 $00 $00 $00  $00 $00 $00 $00 $00 $00 $00 $00  $00 $00 $00 $00 $00 $00 $00 $00
  8180 6A39 00 00 00 00 00 00 + .by  $00 $00 $00 $00 $00 $00 $00 $00  $00 $00 $00 $00 $00 $00 $00 $00  $00 $00 $00 $00 $00 $00 $00 $00
  8181 6A51 00 00 00 00 00 00 + .by  $00 $00 $00 $00 $00 $00 $00 $00  $00 $00 $00 $00 $00 $00 $00 $00  $00 $00 $00 $00 $00 $00 $00 $00
  8182 6A69 00 00 00 00 00 00 + .by  $00 $00 $00 $00 $00 $00 $00 $00  $00 $00 $00 $00 $00 $00 $00 $00  $00 $00 $00 $00 $00 $00 $00 $00
  8183 6A81 00 00 00 00 00 00 + .by  $00 $00 $00 $00 $00 $00 $00 $00  $00 $00 $00 $00 $00 $00 $00 $00  $00 $00 $00 $00 $00 $00 $00 $00
  8184 6A99 00 00 00 00 00 00 + .by  $00 $00 $00 $00 $00 $00 $00 $00  $00 $00 $00 $00 $00 $00 $00 $00  $00 $00 $00 $00 $00 $00 $00 $00
  8185 6AB1 00 00 00 00 00 00 + .by  $00 $00 $00 $00 $00 $00 $00 $00  $00 $00 $00 $00 $00 $00 $00 $00  $00 $00 $00 $00 $00 $00 $00 $00
  8186 6AC9 00 00 00 00 00 00 + .by  $00 $00 $00 $00 $00 $00 $00 $00  $00 $00 $00 $00 $00 $00 $00 $00  $00 $00 $00 $00 $00 $00 $00 $00
  8187 6AE1 00 00 00 00 00 00 + .by  $00 $00 $00 $00 $00 $00 $00 $00  $00 $00 $00 $00 $00 $00 $00 $00  $00 $00 $00 $00 $00 $00 $00 $00
  8188 6AF9 00 00 00 00 00 00 + .by  $00 $00 $00 $00 $00 $00 $00 $00  $00 $00 $00 $00 $00 $00 $00 $00  $00 $00 $00 $00 $00 $00 $00 $00
  8189 6B11 00 00 00 00 00 00 + .by  $00 $00 $00 $00 $00 $00 $00 $00  $00 $00 $00 $00 $00 $00 $00 $00  $00 $00 $00 $00 $00 $00 $00 $00
  8190 6B29 00 00 00 00 00 00 + .by  $00 $00 $00 $00 $00 $00 $00 $00  $00 $00 $00 $00 $00 $00 $00 $00  $00 $00 $00 $00 $00 $00 $00 $00
  8191 6B41 00 00 00 00 00 00 + .by  $00 $00 $00 $00 $00 $00 $00 $00  $00 $00 $00 $00 $00 $00 $00 $00  $00 $00 $00 $00 $00 $00 $00 $00
  8192 6B59 00 00 00 00 00 00 + .by  $00 $00 $00 $00 $00 $00 $00 $00  $00 $00 $00 $00 $00 $00 $00 $00  $00 $00 $00 $00 $00 $00 $00 $00
  8193 6B71 00 00 00 00 00 00 + .by  $00 $00 $00 $00 $00 $00 $00 $00  $00 $00 $00 $00 $00 $00 $00 $00  $00 $00 $00 $00 $00 $00 $00 $00
  8194 6B89 00 00 00 00 00 00 + .by  $00 $00 $00 $00 $00 $00 $00 $00  $00 $00 $00 $00 $00 $00 $00 $00  $00 $00 $00 $00 $00 $00 $00 $00
  8195 6BA1 00 00 00 00 00 00 + .by  $00 $00 $00 $00 $00 $00 $00 $00  $00 $00 $00 $00 $00 $00 $00 $00  $00 $00 $00 $00 $00 $00 $00 $00
  8196 6BB9 00 00 00 00 00 00 + .by  $00 $00 $00 $00 $00 $00 $00 $00  $00 $00 $00 $00 $00 $00 $00 $00  $00 $00 $00 $00 $00 $00 $00 $00
  8197 6BD1 00 00 00 00 00 00 + .by  $00 $00 $00 $00 $00 $00 $00 $00  $00 $00 $00 $00 $00 $00 $00 $00  $00 $00 $00 $00 $00 $00 $00 $00
  8198 6BE9 00 00 00 00 00 00 + .by  $00 $00 $00 $00 $00 $00 $00 $00  $00 $00 $00 $00 $00 $00 $00 $00  $00 $00 $00 $00 $00 $00 $00 $00
  8199 6C01 00 00 00 00 00 00 + .by  $00 $00 $00 $00 $00 $00 $00 $00  $00 $00 $00 $00 $00 $00 $00 $00  $00 $00 $00 $00 $00 $00 $00 $00
  8200 6C19 00 00 00 00 00 00 + .by  $00 $00 $00 $00 $00 $00 $00 $00  $00 $00 $00 $00 $00 $00 $00 $00  $00 $00 $00 $00 $00 $00 $00 $00
  8201 6C31 00 00 00 00 00 00 + .by  $00 $00 $00 $00 $00 $00 $00 $00  $00 $00 $00 $00 $00 $00 $00 $00  $00 $00 $00 $00 $00 $00 $00 $00
  8202 6C49 00 00 00 00 00 00 + .by  $00 $00 $00 $00 $00 $00 $00 $00  $00 $00 $00 $00 $00 $00 $00 $00  $00 $00 $00 $00 $00 $00 $00 $00
  8203 6C61 00 00 00 00 00 00 + .by  $00 $00 $00 $00 $00 $00 $00 $00  $00 $00 $00 $00 $00 $00 $00 $00  $00 $00 $00 $00 $00 $00 $00 $00
  8204 6C79 00 00 00 00 00 00 + .by  $00 $00 $00 $00 $00 $00 $00 $00  $00 $00 $00 $00 $00 $00 $00 $00  $00 $00 $00 $00 $00 $00 $00 $00
  8205 6C91 00 00 00 00 00 00 + .by  $00 $00 $00 $00 $00 $00 $00 $00  $00 $00 $00 $00 $00 $00 $00 $00  $00 $00 $00 $00 $00 $00 $00 $00
  8206 6CA9 00 00 00 00 00 00 + .by  $00 $00 $00 $00 $00 $00 $00 $00  $00 $00 $00 $00 $00 $00 $00 $00  $00 $00 $00 $00 $00 $00 $00 $00
  8207 6CC1 00 00 00 00 00 00 + .by  $00 $00 $00 $00 $00 $00 $00 $00  $00 $00 $00 $00 $00 $00 $00 $00  $00 $00 $00 $00 $00 $00 $00 $00
  8208 6CD9 00 00 00 00 00 00 + .by  $00 $00 $00 $00 $00 $00 $00 $00  $00 $00 $00 $00 $00 $00 $00 $00  $00 $00 $00 $00 $00 $00 $00 $00
  8209 6CF1 00 00 00 00 00 00 + .by  $00 $00 $00 $00 $00 $00 $00 $00  $00 $00 $00 $00 $00 $00 $00 $00  $00 $00 $00 $00 $00 $00 $00 $00
  8210 6D09 00 00 00 00 00 00 + .by  $00 $00 $00 $00 $00 $00 $00 $00  $00 $00 $00 $00 $00 $00 $00 $00  $00 $00 $00 $00 $00 $00 $00 $00
  8211 6D21 00 00 00 00 00 00 + .by  $00 $00 $00 $00 $00 $00 $00 $00  $00 $00 $00 $00 $00 $00 $00 $00  $00 $00 $00 $00 $00 $00 $00 $00
  8212 6D39 00 00 00 00 00 00 + .by  $00 $00 $00 $00 $00 $00 $00 $00  $00 $00 $00 $00 $00 $00 $00 $00  $00 $00 $00 $00 $00 $00 $00 $00
  8213 6D51 00 00 00 00 00 00 + .by  $00 $00 $00 $00 $00 $00 $00 $00  $00 $00 $00 $00 $00 $00 $00 $00  $00 $00 $00 $00 $00 $00 $00 $00
  8214 6D69 00 00 00 00 00 00 + .by  $00 $00 $00 $00 $00 $00 $00 $00  $00 $00 $00 $00 $00 $00 $00 $00  $00 $00 $00 $00 $00 $00 $00 $00
  8215 6D81 00 00 00 00 00 00 + .by  $00 $00 $00 $00 $00 $00 $00 $00  $00 $00 $00 $00 $00 $00 $00 $00  $00 $00 $00 $00 $00 $00 $00 $00
  8216 6D99 00 00 00 00 00 00 + .by  $00 $00 $00 $00 $00 $00 $00 $00  $00 $00 $00 $00 $00 $00 $00 $00  $00 $00 $00 $00 $00 $00 $00 $00
  8217 6DB1 00 00 00 00 00 00 + .by  $00 $00 $00 $00 $00 $00 $00 $00  $00 $00 $00 $00 $00 $00 $00 $00  $00 $00 $00 $00 $00 $00 $00 $00
  8218 6DC9 00 00 00 00 00 00 + .by  $00 $00 $00 $00 $00 $00 $00 $00  $00 $00 $00 $00 $00 $00 $00 $00  $00 $00 $00 $00 $00 $00 $00 $00
  8219 6DE1 00 00 00 00 00 00 + .by  $00 $00 $00 $00 $00 $00 $00 $00  $00 $00 $00 $00 $00 $00 $00 $00  $00 $00 $00 $00 $00 $00 $00 $00
  8220 6DF9 00 00 00 00 00 00 + .by  $00 $00 $00 $00 $00 $00 $00 $00  $00 $00 $00 $00 $00 $00 $00 $00  $00 $00 $00 $00 $00 $00 $00 $00
  8221 6E11 00 00 00 00 00 00 + .by  $00 $00 $00 $00 $00 $00 $00 $00  $00 $00 $00 $00 $00 $00 $00 $00  $00 $00 $00 $00 $00 $00 $00 $00
  8222 6E29 00 00 00 00 00 00 + .by  $00 $00 $00 $00 $00 $00 $00 $00  $00 $00 $00 $00 $00 $00 $00 $00  $00 $00 $00 $00 $00 $00 $00 $00
  8223 6E41 00 00 00 00 00 00 + .by  $00 $00 $00 $00 $00 $00 $00 $00  $00 $00 $00 $00 $00 $00 $00 $00  $00 $00 $00 $00 $00 $00 $00 $00
  8224 6E59 00 00 00 00 00 00 + .by  $00 $00 $00 $00 $00 $00 $00 $00  $00 $00 $00 $00 $00 $00 $00 $00  $00 $00 $00 $00 $00 $00 $00 $00
  8225 6E71 00 00 00 00 00 00 + .by  $00 $00 $00 $00 $00 $00 $00 $00  $00 $00 $00 $00 $00 $00 $00 $00  $00 $00 $00 $00 $00 $00 $00 $00
  8226 6E89 00 00 00 00 00 00 + .by  $00 $00 $00 $00 $00 $00 $00 $00  $00 $00 $00 $00 $00 $00 $00 $00  $00 $00 $00 $00 $00 $00 $00 $00
  8227 6EA1 00 00 00 00 00 00 + .by  $00 $00 $00 $00 $00 $00 $00 $00  $00 $00 $00 $00 $00 $00 $00 $00  $00 $00 $00 $00 $00 $00 $00 $00
  8228 6EB9 00 00 00 00 00 00 + .by  $00 $00 $00 $00 $00 $00 $00 $00  $00 $00 $00 $00 $00 $00 $00 $00  $00 $00 $00 $00 $00 $00 $00 $00
  8229 6ED1 00 00 00 00 00 00 + .by  $00 $00 $00 $00 $00 $00 $00 $00  $00 $00 $00 $00 $00 $00 $00 $00  $00 $00 $00 $00 $00 $00 $00 $00
  8230 6EE9 00 00 00 00 00 00 + .by  $00 $00 $00 $00 $00 $00 $00 $00  $00 $00 $00 $00 $00 $00 $00 $00  $00 $00 $00 $00 $00 $00 $00 $00
  8231 6F01 00 00 00 00 00 00 + .by  $00 $00 $00 $00 $00 $00 $00 $00  $00 $00 $00 $00 $00 $00 $00 $00  $00 $00 $00 $00 $00 $00 $00 $00
  8232 6F19 00 00 00 00 00 00 + .by  $00 $00 $00 $00 $00 $00 $00 $00  $00 $00 $00 $00 $00 $00 $00 $00  $00 $00 $00 $00 $00 $00 $00 $00
  8233 6F31 00 00 00 00 00 00 + .by  $00 $00 $00 $00 $00 $00 $00 $00  $00 $00 $00 $00 $00 $00 $00 $00  $00 $00 $00 $00 $00 $00 $00 $00
  8234 6F49 00 00 00 00 00 00 + .by  $00 $00 $00 $00 $00 $00 $00 $00  $00 $00 $00 $00 $00 $00 $00 $00  $00 $00 $00 $00 $00 $00 $00 $00
  8235 6F61 00 00 00 00 00 00 + .by  $00 $00 $00 $00 $00 $00 $00 $00  $00 $00 $00 $00 $00 $00 $00 $00  $00 $00 $00 $00 $00 $00 $00 $00
  8236 6F79 00 00 00 00 00 00 + .by  $00 $00 $00 $00 $00 $00 $00 $00  $00 $00 $00 $00 $00 $00 $00 $00  $00 $00 $00 $00 $00 $00 $00 $00
  8237 6F91 00 00 00 00 00 00 + .by  $00 $00 $00 $00 $00 $00 $00 $00  $00 $00 $00 $00 $00 $00 $00 $00  $00 $00 $00 $00 $00 $00 $00 $00
  8238 6FA9 00 00 00 00 00 00 + .by  $00 $00 $00 $00 $00 $00 $00 $00  $00 $00 $00 $00 $00 $00 $00 $00  $00 $00 $00 $00 $00 $00 $00 $00
  8239 6FC1 00 00 00 00 00 00 + .by  $00 $00 $00 $00 $00 $00 $00 $00  $00 $00 $00 $00 $00 $00 $00 $00  $00 $00 $00 $00 $00 $00 $00 $00
  8240 6FD9 00 00 00 00 00 00 + .by  $00 $00 $00 $00 $00 $00 $00 $00  $00 $00 $00 $00 $00 $00 $00 $00  $00 $00 $00 $00 $00 $00 $00 $00
  8241 6FF1 00 00 00 00 00 00 + .by  $00 $00 $00 $00 $00 $00 $00 $00  $00 $00 $00 $00 $00 $00 $00 $00  $00 $00 $00 $00 $00 $00 $00 $00
  8242 7009 00 00 00 00 00 00 + .by  $00 $00 $00 $00 $00 $00 $00 $00  $00 $00 $00 $00 $00 $00 $00 $00  $00 $00 $00 $00 $00 $00 $00 $00
  8243 7021 00 00 00 00 00 00 + .by  $00 $00 $00 $00 $00 $00 $00 $00  $00 $00 $00 $00 $00 $00 $00 $00  $00 $00 $00 $00 $00 $00 $00 $00
  8244 7039 00 00 00 00 00 00 + .by  $00 $00 $00 $00 $00 $00 $00 $00  $00 $00 $00 $00 $00 $00 $00 $00  $00 $00 $00 $00 $00 $00 $00 $00
  8245 7051 00 00 00 00 00 00 + .by  $00 $00 $00 $00 $00 $00 $00 $00  $00 $00 $00 $00 $00 $00 $00 $00  $00 $00 $00 $00 $00 $00 $00 $00
  8246 7069 00 00 00 00 00 00 + .by  $00 $00 $00 $00 $00 $00 $00 $00  $00 $00 $00 $00 $00 $00 $00 $00  $00 $00 $00 $00 $00 $00 $00 $00
  8247 7081 00 00 00 00 00 00 + .by  $00 $00 $00 $00 $00 $00 $00 $00  $00 $00 $00 $00 $00 $00 $00 $00  $00 $00 $00 $00 $00 $00 $00 $00
  8248 7099 00 00 00 00 00 00 + .by  $00 $00 $00 $00 $00 $00 $00 $00  $00 $00 $00 $00 $00 $00 $00 $00  $00 $00 $00 $00 $00 $00 $00 $00
  8249 70B1 00 00 00 00 00 00 + .by  $00 $00 $00 $00 $00 $00 $00 $00  $00 $00 $00 $00 $00 $00 $00 $00  $00 $00 $00 $00 $00 $00 $00 $00
  8250 70C9 00 00 00 00 00 00 + .by  $00 $00 $00 $00 $00 $00 $00 $00  $00 $00 $00 $00 $00 $00 $00 $00  $00 $00 $00 $00 $00 $00 $00 $00
  8251 70E1 00 00 00 00 00 00 + .by  $00 $00 $00 $00 $00 $00 $00 $00  $00 $00 $00 $00 $00 $00 $00 $00  $00 $00 $00 $00 $00 $00 $00 $00
  8252 70F9 00 00 00 00 00 00 + .by  $00 $00 $00 $00 $00 $00 $00 $00  $00 $00 $00 $00 $00 $00 $00 $00  $00 $00 $00 $00 $00 $00 $00 $00
  8253 7111 00 00 00 00 00 00 + .by  $00 $00 $00 $00 $00 $00 $00 $00  $00 $00 $00 $00 $00 $00 $00 $00  $00 $00 $00 $00 $00 $00 $00 $00
  8254 7129 00 00 00 00 00 00 + .by  $00 $00 $00 $00 $00 $00 $00 $00  $00 $00 $00 $00 $00 $00 $00 $00  $00 $00 $00 $00 $00 $00 $00 $00
  8255 7141 00 00 00 00 00 00 + .by  $00 $00 $00 $00 $00 $00 $00 $00  $00 $00 $00 $00 $00 $00 $00 $00  $00 $00 $00 $00 $00 $00 $00 $00
  8256 7159 00 00 00 00 00 00 + .by  $00 $00 $00 $00 $00 $00 $00 $00  $00 $00 $00 $00 $00 $00 $00 $00  $00 $00 $00 $00 $00 $00 $00 $00
  8257 7171 00 00 00 00 00 00 + .by  $00 $00 $00 $00 $00 $00 $00 $00  $00 $00 $00 $00 $00 $00 $00 $00  $00 $00 $00 $00 $00 $00 $00 $00
  8258 7189 00 00 00 00 00 00 + .by  $00 $00 $00 $00 $00 $00 $00 $00  $00 $00 $00 $00 $00 $00 $00 $00  $00 $00 $00 $00 $00 $00 $00 $00
  8259 71A1 00 00 00 00 00 00 + .by  $00 $00 $00 $00 $00 $00 $00 $00  $00 $00 $00 $00 $00 $00 $00 $00  $00 $00 $00 $00 $00 $00 $00 $00
  8260 71B9 00 00 00 00 00 00 + .by  $00 $00 $00 $00 $00 $00 $00 $00  $00 $00 $00 $00 $00 $00 $00 $00  $00 $00 $00 $00 $00 $00 $00 $00
  8261 71D1 00 00 00 00 00 00 + .by  $00 $00 $00 $00 $00 $00 $00 $00  $00 $00 $00 $00 $00 $00 $00 $00  $00 $00 $00 $00 $00 $00 $00 $00
  8262 71E9 00 00 00 00 00 00 + .by  $00 $00 $00 $00 $00 $00 $00 $00  $00 $00 $00 $00 $00 $00 $00 $00  $00 $00 $00 $00 $00 $00 $00 $00
  8263 7201 00 00 00 00 00 00 + .by  $00 $00 $00 $00 $00 $00 $00 $00  $00 $00 $00 $00 $00 $00 $00 $00  $00 $00 $00 $00 $00 $00 $00 $00
  8264 7219 00 00 00 00 00 00 + .by  $00 $00 $00 $00 $00 $00 $00 $00  $00 $00 $00 $00 $00 $00 $00 $00  $00 $00 $00 $00 $00 $00 $00 $00
  8265 7231 00 00 00 00 00 00 + .by  $00 $00 $00 $00 $00 $00 $00 $00  $00 $00 $00 $00 $00 $00 $00 $00  $00 $00 $00 $00 $00 $00 $00 $00
  8266 7249 00 00 00 00 00 00 + .by  $00 $00 $00 $00 $00 $00 $00 $00  $00 $00 $00 $00 $00 $00 $00 $00  $00 $00 $00 $00 $00 $00 $00 $00
  8267 7261 00 00 00 00 00 00 + .by  $00 $00 $00 $00 $00 $00 $00 $00  $00 $00 $00 $00 $00 $00 $00 $00  $00 $00 $00 $00 $00 $00 $00 $00
  8268 7279 00 00 00 00 00 00 + .by  $00 $00 $00 $00 $00 $00 $00 $00  $00 $00 $00 $00 $00 $00 $00 $00  $00 $00 $00 $00 $00 $00 $00 $00
  8269 7291 00 00 00 00 00 00 + .by  $00 $00 $00 $00 $00 $00 $00 $00  $00 $00 $00 $00 $00 $00 $00 $00  $00 $00 $00 $00 $00 $00 $00 $00
  8270 72A9 00 00 00 00 00 00 + .by  $00 $00 $00 $00 $00 $00 $00 $00  $00 $00 $00 $00 $00 $00 $00 $00  $00 $00 $00 $00 $00 $00 $00 $00
  8271 72C1 00 00 00 00 00 00 + .by  $00 $00 $00 $00 $00 $00 $00 $00  $00 $00 $00 $00 $00 $00 $00 $00  $00 $00 $00 $00 $00 $00 $00 $00
  8272 72D9 00 00 00 00 00 00 + .by  $00 $00 $00 $00 $00 $00 $00 $00  $00 $00 $00 $00 $00 $00 $00 $00  $00 $00 $00 $00 $00 $00 $00 $00
  8273 72F1 00 00 00 00 00 00 + .by  $00 $00 $00 $00 $00 $00 $00 $00  $00 $00 $00 $00 $00 $00 $00 $00  $00 $00 $00 $00 $00 $00 $00 $00
  8274 7309 00 00 00 00 00 00 + .by  $00 $00 $00 $00 $00 $00 $00 $00  $00 $00 $00 $00 $00 $00 $00 $00  $00 $00 $00 $00 $00 $00 $00 $00
  8275 7321 00 00 00 00 00 00 + .by  $00 $00 $00 $00 $00 $00 $00 $00  $00 $00 $00 $00 $00 $00 $00 $00  $00 $00 $00 $00 $00 $00 $00 $00
  8276 7339 00 00 00 00 00 00 + .by  $00 $00 $00 $00 $00 $00 $00 $00  $00 $00 $00 $00 $00 $00 $00 $00  $00 $00 $00 $00 $00 $00 $00 $00
  8277 7351 00 00 00 00 00 00 + .by  $00 $00 $00 $00 $00 $00 $00 $00  $00 $00 $00 $00 $00 $00 $00 $00  $00 $00 $00 $00 $00 $00 $00 $00
  8278 7369 00 00 00 00 00 00 + .by  $00 $00 $00 $00 $00 $00 $00 $00  $00 $00 $00 $00 $00 $00 $00 $00  $00 $00 $00 $00 $00 $00 $00 $00
  8279 7381 00 00 00 00 00 00 + .by  $00 $00 $00 $00 $00 $00 $00 $00  $00 $00 $00 $00 $00 $00 $00 $00  $00 $00 $00 $00 $00 $00 $00 $00
  8280 7399 00 00 00 00 00 00 + .by  $00 $00 $00 $00 $00 $00 $00 $00  $00 $00 $00 $00 $00 $00 $00 $00  $00 $00 $00 $00 $00 $00 $00 $00
  8281 73B1 00 00 00 00 00 00 + .by  $00 $00 $00 $00 $00 $00 $00 $00  $00 $00 $00 $00 $00 $00 $00 $00  $00 $00 $00 $00 $00 $00 $00 $00
  8282 73C9 00 00 00 00 00 00 + .by  $00 $00 $00 $00 $00 $00 $00 $00  $00 $00 $00 $00 $00 $00 $00 $00  $00 $00 $00 $00 $00 $00 $00 $00
  8283 73E1 00 00 00 00 00 00 + .by  $00 $00 $00 $00 $00 $00 $00 $00  $00 $00 $00 $00 $00 $00 $00 $00  $00 $00 $00 $00 $00 $00 $00 $00
  8284 73F9 00 00 00 00 00 00 + .by  $00 $00 $00 $00 $00 $00 $00 $00  $00 $00 $00 $00 $00 $00 $00 $00  $00 $00 $00 $00 $00 $00 $00 $00
  8285 7411 00 00 00 00 00 00 + .by  $00 $00 $00 $00 $00 $00 $00 $00  $00 $00 $00 $00 $00 $00 $00 $00  $00 $00 $00 $00 $00 $00 $00 $00
  8286 7429 00 00 00 00 00 00 + .by  $00 $00 $00 $00 $00 $00 $00 $00  $00 $00 $00 $00 $00 $00 $00 $00  $00 $00 $00 $00 $00 $00 $00 $00
  8287 7441 00 00 00 00 00 00 + .by  $00 $00 $00 $00 $00 $00 $00 $00  $00 $00 $00 $00 $00 $00 $00 $00  $00 $00 $00 $00 $00 $00 $00 $00
  8288 7459 00 00 00 00 00 00 + .by  $00 $00 $00 $00 $00 $00 $00 $00  $00 $00 $00 $00 $00 $00 $00 $00  $00 $00 $00 $00 $00 $00 $00 $00
  8289 7471 00 00 00 00 00 00 + .by  $00 $00 $00 $00 $00 $00 $00 $00  $00 $00 $00 $00 $00 $00 $00 $00  $00 $00 $00 $00 $00 $00 $00 $00
  8290 7489 00 00 00 00 00 00 + .by  $00 $00 $00 $00 $00 $00 $00 $00  $00 $00 $00 $00 $00 $00 $00 $00  $00 $00 $00 $00 $00 $00 $00 $00
  8291 74A1 00 00 00 00 00 00 + .by  $00 $00 $00 $00 $00 $00 $00 $00  $00 $00 $00 $00 $00 $00 $00 $00  $00 $00 $00 $00 $00 $00 $00 $00
  8292 74B9 00 00 00 00 00 00 + .by  $00 $00 $00 $00 $00 $00 $00 $00  $00 $00 $00 $00 $00 $00 $00 $00  $00 $00 $00 $00 $00 $00 $00 $00
  8293 74D1 00 00 00 00 00 00 + .by  $00 $00 $00 $00 $00 $00 $00 $00  $00 $00 $00 $00 $00 $00 $00 $00  $00 $00 $00 $00 $00 $00 $00 $00
  8294 74E9 00 00 00 00 00 00 + .by  $00 $00 $00 $00 $00 $00 $00 $00  $00 $00 $00 $00 $00 $00 $00 $00  $00 $00 $00 $00 $00 $00 $00 $00
  8295 7501 00 00 00 00 00 00 + .by  $00 $00 $00 $00 $00 $00 $00 $00  $00 $00 $00 $00 $00 $00 $00 $00  $00 $00 $00 $00 $00 $00 $00 $00
  8296 7519 00 00 00 00 00 00 + .by  $00 $00 $00 $00 $00 $00 $00 $00  $00 $00 $00 $00 $00 $00 $00 $00  $00 $00 $00 $00 $00 $00 $00 $00
  8297 7531 00 00 00 00 00 00 + .by  $00 $00 $00 $00 $00 $00 $00 $00  $00 $00 $00 $00 $00 $00 $00 $00  $00 $00 $00 $00 $00 $00 $00 $00
  8298 7549 00 00 00 00 00 00 + .by  $00 $00 $00 $00 $00 $00 $00 $00  $00 $00 $00 $00 $00 $00 $00 $00  $00 $00 $00 $00 $00 $00 $00 $00
  8299 7561 00 00 00 00 00 00 + .by  $00 $00 $00 $00 $00 $00 $00 $00  $00 $00 $00 $00 $00 $00 $00 $00  $00 $00 $00 $00 $00 $00 $00 $00
  8300 7579 00 00 00 00 00 00 + .by  $00 $00 $00 $00 $00 $00 $00 $00  $00 $00 $00 $00 $00 $00 $00 $00  $00 $00 $00 $00 $00 $00 $00 $00
  8301 7591 00 00 00 00 00 00 + .by  $00 $00 $00 $00 $00 $00 $00 $00  $00 $00 $00 $00 $00 $00 $00 $00  $00 $00 $00 $00 $00 $00 $00 $00
  8302 75A9 00 00 00 00 00 00 + .by  $00 $00 $00 $00 $00 $00 $00 $00  $00 $00 $00 $00 $00 $00 $00 $00  $00 $00 $00 $00 $00 $00 $00 $00
  8303 75C1 00 00 00 00 00 00 + .by  $00 $00 $00 $00 $00 $00 $00 $00  $00 $00 $00 $00 $00 $00 $00 $00  $00 $00 $00 $00 $00 $00 $00 $00
  8304 75D9 00 00 00 00 00 00 + .by  $00 $00 $00 $00 $00 $00 $00 $00  $00 $00 $00 $00 $00 $00 $00 $00  $00 $00 $00 $00 $00 $00 $00 $00
  8305 75F1 00 00 00 00 00 00 + .by  $00 $00 $00 $00 $00 $00 $00 $00  $00 $00 $00 $00 $00 $00 $00 $00  $00 $00 $00 $00 $00 $00 $00 $00
  8306 7609 00 00 00 00 00 00 + .by  $00 $00 $00 $00 $00 $00 $00 $00  $00 $00 $00 $00 $00 $00 $00 $00  $00 $00 $00 $00 $00 $00 $00 $00
  8307 7621 00 00 00 00 00 00 + .by  $00 $00 $00 $00 $00 $00 $00 $00  $00 $00 $00 $00 $00 $00 $00 $00  $00 $00 $00 $00 $00 $00 $00 $00
  8308 7639 00 00 00 00 00 00 + .by  $00 $00 $00 $00 $00 $00 $00 $00  $00 $00 $00 $00 $00 $00 $00 $00  $00 $00 $00 $00 $00 $00 $00 $00
  8309 7651 00 00 00 00 00 00 + .by  $00 $00 $00 $00 $00 $00 $00 $00  $00 $00 $00 $00 $00 $00 $00 $00  $00 $00 $00 $00 $00 $00 $00 $00
  8310 7669 00 00 00 00 00 00 + .by  $00 $00 $00 $00 $00 $00 $00 $00  $00 $00 $00 $00 $00 $00 $00 $00  $00 $00 $00 $00 $00 $00 $00 $00
  8311 7681 00 00 00 00 00 00 + .by  $00 $00 $00 $00 $00 $00 $00 $00  $00 $00 $00 $00 $00 $00 $00 $00  $00 $00 $00 $00 $00 $00 $00 $00
  8312 7699 00 00 00 00 00 00 + .by  $00 $00 $00 $00 $00 $00 $00 $00  $00 $00 $00 $00 $00 $00 $00 $00  $00 $00 $00 $00 $00 $00 $00 $00
  8313 76B1 00 00 00 00 00 00 + .by  $00 $00 $00 $00 $00 $00 $00 $00  $00 $00 $00 $00 $00 $00 $00 $00  $00 $00 $00 $00 $00 $00 $00 $00
  8314 76C9 00 00 00 00 00 00 + .by  $00 $00 $00 $00 $00 $00 $00 $00  $00 $00 $00 $00 $00 $00 $00 $00  $00 $00 $00 $00 $00 $00 $00 $00
  8315 76E1 00 00 00 00 00 00 + .by  $00 $00 $00 $00 $00 $00 $00 $00  $00 $00 $00 $00 $00 $00 $00 $00  $00 $00 $00 $00 $00 $00 $00 $00
  8316 76F9 00 00 00 00 00 00 + .by  $00 $00 $00 $00 $00 $00 $00 $00  $00 $00 $00 $00 $00 $00 $00 $00  $00 $00 $00 $00 $00 $00 $00 $00
  8317 7711 00 00 00 00 00 00 + .by  $00 $00 $00 $00 $00 $00 $00 $00  $00 $00 $00 $00 $00 $00 $00 $00  $00 $00 $00 $00 $00 $00 $00 $00
  8318 7729 00 00 00 00 00 00 + .by  $00 $00 $00 $00 $00 $00 $00 $00  $00 $00 $00 $00 $00 $00 $00 $00  $00 $00 $00 $00 $00 $00 $00 $00
  8319 7741 00 00 00 00 00 00 + .by  $00 $00 $00 $00 $00 $00 $00 $00  $00 $00 $00 $00 $00 $00 $00 $00  $00 $00 $00 $00 $00 $00 $00 $00
  8320 7759 00 00 00 00 00 00 + .by  $00 $00 $00 $00 $00 $00 $00 $00  $00 $00 $00 $00 $00 $00 $00 $00  $00 $00 $00 $00 $00 $00 $00 $00
  8321 7771 00 00 00 00 00 00 + .by  $00 $00 $00 $00 $00 $00 $00 $00  $00 $00 $00 $00 $00 $00 $00 $00  $00 $00 $00 $00 $00 $00 $00 $00
  8322 7789 00 00 00 00 00 00 + .by  $00 $00 $00 $00 $00 $00 $00 $00  $00 $00 $00 $00 $00 $00 $00 $00  $00 $00 $00 $00 $00 $00 $00 $00
  8323 77A1 00 00 00 00 00 00 + .by  $00 $00 $00 $00 $00 $00 $00 $00  $00 $00 $00 $00 $00 $00 $00 $00  $00 $00 $00 $00 $00 $00 $00 $00
  8324 77B9 00 00 00 00 00 00 + .by  $00 $00 $00 $00 $00 $00 $00 $00  $00 $00 $00 $00 $00 $00 $00 $00  $00 $00 $00 $00 $00 $00 $00 $00
  8325 77D1 00 00 00 00 00 00 + .by  $00 $00 $00 $00 $00 $00 $00 $00  $00 $00 $00 $00 $00 $00 $00 $00  $00 $00 $00 $00 $00 $00 $00 $00
  8326 77E9 00 00 00 00 00 00 + .by  $00 $00 $00 $00 $00 $00 $00 $00  $00 $00 $00 $00 $00 $00 $00 $00  $00 $00 $00 $00 $00 $00 $00 $00
  8327 7801 00 00 00 00 00 00 + .by  $00 $00 $00 $00 $00 $00 $00 $00  $00 $00 $00 $00 $00 $00 $00 $00  $00 $00 $00 $00 $00 $00 $00 $00
  8328 7819 00 00 00 00 00 00 + .by  $00 $00 $00 $00 $00 $00 $00 $00  $00 $00 $00 $00 $00 $00 $00 $00  $00 $00 $00 $00 $00 $00 $00 $00
  8329 7831 00 00 00 00 00 00 + .by  $00 $00 $00 $00 $00 $00 $00 $00  $00 $00 $00 $00 $00 $00 $00 $00  $00 $00 $00 $00 $00 $00 $00 $00
  8330 7849 00 00 00 00 00 00 + .by  $00 $00 $00 $00 $00 $00 $00 $00  $00 $00 $00 $00 $00 $00 $00 $00  $00 $00 $00 $00 $00 $00 $00 $00
  8331 7861 00 00 00 00 00 00 + .by  $00 $00 $00 $00 $00 $00 $00 $00  $00 $00 $00 $00 $00 $00 $00 $00  $00 $00 $00 $00 $00 $00 $00 $00
  8332 7879 00 00 00 00 00 00 + .by  $00 $00 $00 $00 $00 $00 $00 $00  $00 $00 $00 $00 $00 $00 $00 $00  $00 $00 $00 $00 $00 $00 $00 $00
  8333 7891 00 00 00 00 00 00 + .by  $00 $00 $00 $00 $00 $00 $00 $00  $00 $00 $00 $00 $00 $00 $00 $00  $00 $00 $00 $00 $00 $00 $00 $00
  8334 78A9 00 00 00 00 00 00 + .by  $00 $00 $00 $00 $00 $00 $00 $00  $00 $00 $00 $00 $00 $00 $00 $00  $00 $00 $00 $00 $00 $00 $00 $00
  8335 78C1 00 00 00 00 00 00 + .by  $00 $00 $00 $00 $00 $00 $00 $00  $00 $00 $00 $00 $00 $00 $00 $00  $00 $00 $00 $00 $00 $00 $00 $00
  8336 78D9 00 00 00 00 00 00 + .by  $00 $00 $00 $00 $00 $00 $00 $00  $00 $00 $00 $00 $00 $00 $00 $00  $00 $00 $00 $00 $00 $00 $00 $00
  8337 78F1 00 00 00 00 00 00 + .by  $00 $00 $00 $00 $00 $00 $00 $00  $00 $00 $00 $00 $00 $00 $00 $00  $00 $00 $00 $00 $00 $00 $00 $00
  8338 7909 00 00 00 00 00 00 + .by  $00 $00 $00 $00 $00 $00 $00 $00  $00 $00 $00 $00 $00 $00 $00 $00  $00 $00 $00 $00 $00 $00 $00 $00
  8339 7921 00 00 00 00 00 00 + .by  $00 $00 $00 $00 $00 $00 $00 $00  $00 $00 $00 $00 $00 $00 $00 $00  $00 $00 $00 $00 $00 $00 $00 $00
  8340 7939 00 00 00 00 00 00 + .by  $00 $00 $00 $00 $00 $00 $00 $00  $00 $00 $00 $00 $00 $00 $00 $00  $00 $00 $00 $00 $00 $00 $00 $00
  8341 7951 00 00 00 00 00 00 + .by  $00 $00 $00 $00 $00 $00 $00 $00  $00 $00 $00 $00 $00 $00 $00 $00  $00 $00 $00 $00 $00 $00 $00 $00
  8342 7969 00 00 00 00 00 00 + .by  $00 $00 $00 $00 $00 $00 $00 $00  $00 $00 $00 $00 $00 $00 $00 $00  $00 $00 $00 $00 $00 $00 $00 $00
  8343 7981 00 00 00 00 00 00 + .by  $00 $00 $00 $00 $00 $00 $00 $00  $00 $00 $00 $00 $00 $00 $00 $00  $00 $00 $00 $00 $00 $00 $00 $00
  8344 7999 00 00 00 00 00 00 + .by  $00 $00 $00 $00 $00 $00 $00 $00  $00 $00 $00 $00 $00 $00 $00 $00  $00 $00 $00 $00 $00 $00 $00 $00
  8345 79B1 00 00 00 00 00 00 + .by  $00 $00 $00 $00 $00 $00 $00 $00  $00 $00 $00 $00 $00 $00 $00 $00  $00 $00 $00 $00 $00 $00 $00 $00
  8346 79C9 00 00 00 00 00 00 + .by  $00 $00 $00 $00 $00 $00 $00 $00  $00 $00 $00 $00 $00 $00 $00 $00  $00 $00 $00 $00 $00 $00 $00 $00
  8347 79E1 00 00 00 00 00 00 + .by  $00 $00 $00 $00 $00 $00 $00 $00  $00 $00 $00 $00 $00 $00 $00 $00  $00 $00 $00 $00 $00 $00 $00 $00
  8348 79F9 00 00 00 00 00 00 + .by  $00 $00 $00 $00 $00 $00 $00 $00  $00 $00 $00 $00 $00 $00 $00 $00  $00 $00 $00 $00 $00 $00 $00 $00
  8349 7A11 00 00 00 00 00 00 + .by  $00 $00 $00 $00 $00 $00 $00 $00  $00 $00 $00 $00 $00 $00 $00 $00  $00 $00 $00 $00 $00 $00 $00 $00
  8350 7A29 00 00 00 00 00 00 + .by  $00 $00 $00 $00 $00 $00 $00 $00  $00 $00 $00 $00 $00 $00 $00 $00  $00 $00 $00 $00 $00 $00 $00 $00
  8351 7A41 00 00 00 00 00 00 + .by  $00 $00 $00 $00 $00 $00 $00 $00  $00 $00 $00 $00 $00 $00 $00 $00  $00 $00 $00 $00 $00 $00 $00 $00
  8352 7A59 00 00 00 00 00 00 + .by  $00 $00 $00 $00 $00 $00 $00 $00  $00 $00 $00 $00 $00 $00 $00 $00  $00 $00 $00 $00 $00 $00 $00 $00
  8353 7A71 00 00 00 00 00 00 + .by  $00 $00 $00 $00 $00 $00 $00 $00  $00 $00 $00 $00 $00 $00 $00 $00  $00 $00 $00 $00 $00 $00 $00 $00
  8354 7A89 00 00 00 00 00 00 + .by  $00 $00 $00 $00 $00 $00 $00 $00  $00 $00 $00 $00 $00 $00 $00 $00  $00 $00 $00 $00 $00 $00 $00 $00
  8355 7AA1 00 00 00 00 00 00 + .by  $00 $00 $00 $00 $00 $00 $00 $00  $00 $00 $00 $00 $00 $00 $00 $00  $00 $00 $00 $00 $00 $00 $00 $00
  8356 7AB9 00 00 00 00 00 00 + .by  $00 $00 $00 $00 $00 $00 $00 $00  $00 $00 $00 $00 $00 $00 $00 $00  $00 $00 $00 $00 $00 $00 $00 $00
  8357 7AD1 00 00 00 00 00 00 + .by  $00 $00 $00 $00 $00 $00 $00 $00  $00 $00 $00 $00 $00 $00 $00 $00  $00 $00 $00 $00 $00 $00 $00 $00
  8358 7AE9 00 00 00 00 00 00 + .by  $00 $00 $00 $00 $00 $00 $00 $00  $00 $00 $00 $00 $00 $00 $00 $00  $00 $00 $00 $00 $00 $00 $00 $00
  8359 7B01 00 00 00 00 00 00 + .by  $00 $00 $00 $00 $00 $00 $00 $00  $00 $00 $00 $00 $00 $00 $00 $00  $00 $00 $00 $00 $00 $00 $00 $00
  8360 7B19 00 00 00 00 00 00 + .by  $00 $00 $00 $00 $00 $00 $00 $00  $00 $00 $00 $00 $00 $00 $00 $00  $00 $00 $00 $00 $00 $00 $00 $00
  8361 7B31 00 00 00 00 00 00 + .by  $00 $00 $00 $00 $00 $00 $00 $00  $00 $00 $00 $00 $00 $00 $00 $00  $00 $00 $00 $00 $00 $00 $00 $00
  8362 7B49 00 00 00 00 00 00 + .by  $00 $00 $00 $00 $00 $00 $00 $00  $00 $00 $00 $00 $00 $00 $00 $00  $00 $00 $00 $00 $00 $00 $00 $00
  8363 7B61 00 00 00 00 00 00 + .by  $00 $00 $00 $00 $00 $00 $00 $00  $00 $00 $00 $00 $00 $00 $00 $00  $00 $00 $00 $00 $00 $00 $00 $00
  8364 7B79 00 00 00 00 00 00 + .by  $00 $00 $00 $00 $00 $00 $00 $00  $00 $00 $00 $00 $00 $00 $00 $00  $00 $00 $00 $00 $00 $00 $00 $00
  8365 7B91 00 00 00 00 00 00 + .by  $00 $00 $00 $00 $00 $00 $00 $00  $00 $00 $00 $00 $00 $00 $00 $00  $00 $00 $00 $00 $00 $00 $00 $00
  8366 7BA9 00 00 00 00 00 00 + .by  $00 $00 $00 $00 $00 $00 $00 $00  $00 $00 $00 $00 $00 $00 $00 $00  $00 $00 $00 $00 $00 $00 $00 $00
  8367 7BC1 00 00 00 00 00 00 + .by  $00 $00 $00 $00 $00 $00 $00 $00  $00 $00 $00 $00 $00 $00 $00 $00  $00 $00 $00 $00 $00 $00 $00 $00
  8368 7BD9 00 00 00 00 00 00 + .by  $00 $00 $00 $00 $00 $00 $00 $00  $00 $00 $00 $00 $00 $00 $00 $00  $00 $00 $00 $00 $00 $00 $00 $00
  8369 7BF1 00 00 00 00 00 00 + .by  $00 $00 $00 $00 $00 $00 $00 $00  $00 $00 $00 $00 $00 $00 $00 $00  $00 $00 $00 $00 $00 $00 $00 $00
  8370 7C09 00 00 00 00 00 00 + .by  $00 $00 $00 $00 $00 $00 $00 $00  $00 $00 $00 $00 $00 $00 $00 $00  $00 $00 $00 $00 $00 $00 $00 $00
  8371 7C21 00 00 00 00 00 00 + .by  $00 $00 $00 $00 $00 $00 $00 $00  $00 $00 $00 $00 $00 $00 $00 $00  $00 $00 $00 $00 $00 $00 $00 $00
  8372 7C39 00 00 00 00 00 00 + .by  $00 $00 $00 $00 $00 $00 $00 $00  $00 $00 $00 $00 $00 $00 $00 $00  $00 $00 $00 $00 $00 $00 $00 $00
  8373 7C51 00 00 00 00 00 00 + .by  $00 $00 $00 $00 $00 $00 $00 $00  $00 $00 $00 $00 $00 $00 $00 $00  $00 $00 $00 $00 $00 $00 $00 $00
  8374 7C69 00 00 00 00 00 00 + .by  $00 $00 $00 $00 $00 $00 $00 $00  $00 $00 $00 $00 $00 $00 $00 $00  $00 $00 $00 $00 $00 $00 $00 $00
  8375 7C81 00 00 00 00 00 00 + .by  $00 $00 $00 $00 $00 $00 $00 $00  $00 $00 $00 $00 $00 $00 $00 $00  $00 $00 $00 $00 $00 $00 $00 $00
  8376 7C99 00 00 00 00 00 00 + .by  $00 $00 $00 $00 $00 $00 $00 $00  $00 $00 $00 $00 $00 $00 $00 $00  $00 $00 $00 $00 $00 $00 $00 $00
  8377 7CB1 00 00 00 00 00 00 + .by  $00 $00 $00 $00 $00 $00 $00 $00  $00 $00 $00 $00 $00 $00 $00 $00  $00 $00 $00 $00 $00 $00 $00 $00
  8378 7CC9 00 00 00 00 00 00 + .by  $00 $00 $00 $00 $00 $00 $00 $00  $00 $00 $00 $00 $00 $00 $00 $00  $00 $00 $00 $00 $00 $00 $00 $00
  8379 7CE1 00 00 00 00 00 00 + .by  $00 $00 $00 $00 $00 $00 $00 $00  $00 $00 $00 $00 $00 $00 $00 $00  $00 $00 $00 $00 $00 $00 $00 $00
  8380 7CF9 00 00 00 00 00 00 + .by  $00 $00 $00 $00 $00 $00 $00 $00  $00 $00 $00 $00 $00 $00 $00 $00  $00 $00 $00 $00 $00 $00 $00 $00
  8381 7D11 00 00 00 00 00 00 + .by  $00 $00 $00 $00 $00 $00 $00 $00  $00 $00 $00 $00 $00 $00 $00 $00  $00 $00 $00 $00 $00 $00 $00 $00
  8382 7D29 00 00 00 00 00 00 + .by  $00 $00 $00 $00 $00 $00 $00 $00  $00 $00 $00 $00 $00 $00 $00 $00  $00 $00 $00 $00 $00 $00 $00 $00
  8383 7D41 00 00 00 00 00 00 + .by  $00 $00 $00 $00 $00 $00 $00 $00  $00 $00 $00 $00 $00 $00 $00 $00  $00 $00 $00 $00 $00 $00 $00 $00
  8384 7D59 00 00 00 00 00 00 + .by  $00 $00 $00 $00 $00 $00 $00 $00  $00 $00 $00 $00 $00 $00 $00 $00  $00 $00 $00 $00 $00 $00 $00 $00
  8385 7D71 00 00 00 00 00 00 + .by  $00 $00 $00 $00 $00 $00 $00 $00  $00 $00 $00 $00 $00 $00 $00 $00  $00 $00 $00 $00 $00 $00 $00 $00
  8386 7D89 00 00 00 00 00 00 + .by  $00 $00 $00 $00 $00 $00 $00 $00  $00 $00 $00 $00 $00 $00 $00 $00  $00 $00 $00 $00 $00 $00 $00 $00
  8387 7DA1 00 00 00 00 00 00 + .by  $00 $00 $00 $00 $00 $00 $00 $00  $00 $00 $00 $00 $00 $00 $00 $00  $00 $00 $00 $00 $00 $00 $00 $00
  8388 7DB9 00 00 00 00 00 00 + .by  $00 $00 $00 $00 $00 $00 $00 $00  $00 $00 $00 $00 $00 $00 $00 $00  $00 $00 $00 $00 $00 $00 $00 $00
  8389 7DD1 00 00 00 00 00 00 + .by  $00 $00 $00 $00 $00 $00 $00 $00  $00 $00 $00 $00 $00 $00 $00 $00  $00 $00 $00 $00 $00 $00 $00 $00
  8390 7DE9 00 00 00 00 00 00 + .by  $00 $00 $00 $00 $00 $00 $00 $00  $00 $00 $00 $00 $00 $00 $00 $00  $00 $00 $00 $00 $00 $00 $00 $00
  8391 7E01 00 00 00 00 00 00 + .by  $00 $00 $00 $00 $00 $00 $00 $00  $00 $00 $00 $00 $00 $00 $00 $00  $00 $00 $00 $00 $00 $00 $00 $00
  8392 7E19 00 00 00 00 00 00 + .by  $00 $00 $00 $00 $00 $00 $00 $00  $00 $00 $00 $00 $00 $00 $00 $00  $00 $00 $00 $00 $00 $00 $00 $00
  8393 7E31 00 00 00 00 00 00 + .by  $00 $00 $00 $00 $00 $00 $00 $00  $00 $00 $00 $00 $00 $00 $00 $00  $00 $00 $00 $00 $00 $00 $00 $00
  8394 7E49 00 00 00 00 00 00 + .by  $00 $00 $00 $00 $00 $00 $00 $00  $00 $00 $00 $00 $00 $00 $00 $00  $00 $00 $00 $00 $00 $00 $00 $00
  8395 7E61 00 00 00 00 00 00 + .by  $00 $00 $00 $00 $00 $00 $00 $00  $00 $00 $00 $00 $00 $00 $00 $00  $00 $00 $00 $00 $00 $00 $00 $00
  8396 7E79 00 00 00 00 00 00 + .by  $00 $00 $00 $00 $00 $00 $00 $00  $00 $00 $00 $00 $00 $00 $00 $00  $00 $00 $00 $00 $00 $00 $00 $00
  8397 7E91 00 00 00 00 00 00 + .by  $00 $00 $00 $00 $00 $00 $00 $00  $00 $00 $00 $00 $00 $00 $00 $00  $00 $00 $00 $00 $00 $00 $00 $00
  8398 7EA9 00 00 00 00 00 00 + .by  $00 $00 $00 $00 $00 $00 $00 $00  $00 $00 $00 $00 $00 $00 $00 $00  $00 $00 $00 $00 $00 $00 $00 $00
  8399 7EC1 00 00 00 00 00 00 + .by  $00 $00 $00 $00 $00 $00 $00 $00  $00 $00 $00 $00 $00 $00 $00 $00  $00 $00 $00 $00 $00 $00 $00 $00
  8400 7ED9 00 00 00 00 00 00 + .by  $00 $00 $00 $00 $00 $00 $00 $00  $00 $00 $00 $00 $00 $00 $00 $00  $00 $00 $00 $00 $00 $00 $00 $00
  8401 7EF1 00 00 00 00 00 00 + .by  $00 $00 $00 $00 $00 $00 $00 $00  $00 $00 $00 $00 $00 $00 $00 $00  $00 $00 $00 $00 $00 $00 $00 $00
  8402 7F09 00 00 00 00 00 00 + .by  $00 $00 $00 $00 $00 $00 $00 $00  $00 $00 $00 $00 $00 $00 $00 $00  $00 $00 $00 $00 $00 $00 $00 $00
  8403 7F21 00 00 00 00 00 00 + .by  $00 $00 $00 $00 $00 $00 $00 $00  $00 $00 $00 $00 $00 $00 $00 $00  $00 $00 $00 $00 $00 $00 $00 $00
  8404 7F39 00 00 00 00 00 00 + .by  $00 $00 $00 $00 $00 $00 $00 $00  $00 $00 $00 $00 $00 $00 $00 $00  $00 $00 $00 $00 $00 $00 $00 $00
  8405 7F51 00 00 00 00 00 00 + .by  $00 $00 $00 $00 $00 $00 $00 $00  $00 $00 $00 $00 $00 $00 $00 $00  $00 $00 $00 $00 $00 $00 $00 $00
  8406 7F69 00 00 00 00 00 00 + .by  $00 $00 $00 $00 $00 $00 $00 $00  $00 $00 $00 $00 $00 $00 $00 $00  $00 $00 $00 $00 $00 $00 $00 $00
  8407 7F81 00 00 00 00 00 00 + .by  $00 $00 $00 $00 $00 $00 $00 $00  $00 $00 $00 $00 $00 $00 $00 $00  $00 $00 $00 $00 $00 $00 $00 $00
  8408 7F99 00 00 00 00 00 00 + .by  $00 $00 $00 $00 $00 $00 $00 $00  $00 $00 $00 $00 $00 $00 $00 $00  $00 $00 $00 $00 $00 $00 $00 $00
  8409 7FB1 00 00 00 00 00 00 + .by  $00 $00 $00 $00 $00 $00 $00 $00  $00 $00 $00 $00 $00 $00 $00 $00  $00 $00 $00 $00 $00 $00 $00 $00
  8410 7FC9 00 00 00 00 00 00 + .by  $00 $00 $00 $00 $00 $00 $00 $00  $00 $00 $00 $00 $00 $00 $00 $00  $00 $00 $00 $00 $00 $00 $00 $00
  8411 7FE1 00 00 00 00 00 00 + .by  $00 $00 $00 $00 $00 $00 $00 $00  $00 $00 $00 $00 $00 $00 $00 $00  $00 $00 $00 $00 $00 $00 $00 $00
  8412 7FF9 00 00 00 00 00 00 + .by  $00 $00 $00 $00 $00 $00 $00 $00  $00 $00 $00 $00 $00 $00 $00 $00  $00 $00 $00 $00 $00 $00 $00 $00
  8413 8011 00 00 00 00 00 00 + .by  $00 $00 $00 $00 $00 $00 $00 $00  $00 $00 $00 $00 $00 $00 $00 $00  $00 $00 $00 $00 $00 $00 $00 $00
  8414 8029 00 00 00 00 00 00 + .by  $00 $00 $00 $00 $00 $00 $00 $00  $00 $00 $00 $00 $00 $00 $00 $00  $00 $00 $00 $00 $00 $00 $00 $00
  8415 8041 00 00 00 00 00 00 + .by  $00 $00 $00 $00 $00 $00 $00 $00  $00 $00 $00 $00 $00 $00 $00 $00  $00 $00 $00 $00 $00 $00 $00 $00
  8416 8059 00 00 00 00 00 00 + .by  $00 $00 $00 $00 $00 $00 $00 $00  $00 $00 $00 $00 $00 $00 $00 $00  $00 $00 $00 $00 $00 $00 $00 $00
  8417 8071 00 00 00 00 00 00 + .by  $00 $00 $00 $00 $00 $00 $00 $00  $00 $00 $00 $00 $00 $00 $00 $00  $00 $00 $00 $00 $00 $00 $00 $00
  8418 8089 00 00 00 00 00 00 + .by  $00 $00 $00 $00 $00 $00 $00 $00  $00 $00 $00 $00 $00 $00 $00 $00  $00 $00 $00 $00 $00 $00 $00 $00
  8419 80A1 00 00 00 00 00 00 + .by  $00 $00 $00 $00 $00 $00 $00 $00  $00 $00 $00 $00 $00 $00 $00 $00  $00 $00 $00 $00 $00 $00 $00 $00
  8420 80B9 00 00 00 00 00 00 + .by  $00 $00 $00 $00 $00 $00 $00 $00  $00 $00 $00 $00 $00 $00 $00 $00  $00 $00 $00 $00 $00 $00 $00 $00
  8421 80D1 00 00 00 00 00 00 + .by  $00 $00 $00 $00 $00 $00 $00 $00  $00 $00 $00 $00 $00 $00 $00 $00  $00 $00 $00 $00 $00 $00 $00 $00
  8422 80E9 00 00 00 00 00 00 + .by  $00 $00 $00 $00 $00 $00 $00 $00  $00 $00 $00 $00 $00 $00 $00 $00  $00 $00 $00 $00 $00 $00 $00 $00
  8423 8101 00 00 00 00 00 00 + .by  $00 $00 $00 $00 $00 $00 $00 $00  $00 $00 $00 $00 $00 $00 $00 $00  $00 $00 $00 $00 $00 $00 $00 $00
  8424 8119 00 00 00 00 00 00 + .by  $00 $00 $00 $00 $00 $00 $00 $00  $00 $00 $00 $00 $00 $00 $00 $00  $00 $00 $00 $00 $00 $00 $00 $00
  8425 8131 00 00 00 00 00 00 + .by  $00 $00 $00 $00 $00 $00 $00 $00  $00 $00 $00 $00 $00 $00 $00 $00  $00 $00 $00 $00 $00 $00 $00 $00
  8426 8149 00 00 00 00 00 00 + .by  $00 $00 $00 $00 $00 $00 $00 $00  $00 $00 $00 $00 $00 $00 $00 $00  $00 $00 $00 $00 $00 $00 $00 $00
  8427 8161 00 00 00 00 00 00 + .by  $00 $00 $00 $00 $00 $00 $00 $00  $00 $00 $00 $00 $00 $00 $00 $00  $00 $00 $00 $00 $00 $00 $00 $00
  8428 8179 00 00 00 00 00 00 + .by  $00 $00 $00 $00 $00 $00 $00 $00  $00 $00 $00 $00 $00 $00 $00 $00  $00 $00 $00 $00 $00 $00 $00 $00
  8429 8191 00 00 00 00 00 00 + .by  $00 $00 $00 $00 $00 $00 $00 $00  $00 $00 $00 $00 $00 $00 $00 $00  $00 $00 $00 $00 $00 $00 $00 $00
  8430 81A9 00 00 00 00 00 00 + .by  $00 $00 $00 $00 $00 $00 $00 $00  $00 $00 $00 $00 $00 $00 $00 $00  $00 $00 $00 $00 $00 $00 $00 $00
  8431 81C1 00 00 00 00 00 00 + .by  $00 $00 $00 $00 $00 $00 $00 $00  $00 $00 $00 $00 $00 $00 $00 $00  $00 $00 $00 $00 $00 $00 $00 $00
  8432 81D9 00 00 00 00 00 00 + .by  $00 $00 $00 $00 $00 $00 $00 $00  $00 $00 $00 $00 $00 $00 $00 $00  $00 $00 $00 $00 $00 $00 $00 $00
  8433 81F1 00 00 00 00 00 00 + .by  $00 $00 $00 $00 $00 $00 $00 $00  $00 $00 $00 $00 $00 $00 $00 $00  $00 $00 $00 $00 $00 $00 $00 $00
  8434 8209 00 00 00 00 00 00 + .by  $00 $00 $00 $00 $00 $00 $00 $00  $00 $00 $00 $00 $00 $00 $00 $00  $00 $00 $00 $00 $00 $00 $00 $00
  8435 8221 00 00 00 00 00 00 + .by  $00 $00 $00 $00 $00 $00 $00 $00  $00 $00 $00 $00 $00 $00 $00 $00  $00 $00 $00 $00 $00 $00 $00 $00
  8436 8239 00 00 00 00 00 00 + .by  $00 $00 $00 $00 $00 $00 $00 $00  $00 $00 $00 $00 $00 $00 $00 $00  $00 $00 $00 $00 $00 $00 $00 $00
  8437 8251 00 00 00 00 00 00 + .by  $00 $00 $00 $00 $00 $00 $00 $00  $00 $00 $00 $00 $00 $00 $00 $00  $00 $00 $00 $00 $00 $00 $00 $00
  8438 8269 00 00 00 00 00 00 + .by  $00 $00 $00 $00 $00 $00 $00 $00  $00 $00 $00 $00 $00 $00 $00 $00  $00 $00 $00 $00 $00 $00 $00 $00
  8439 8281 00 00 00 00 00 00 + .by  $00 $00 $00 $00 $00 $00 $00 $00  $00 $00 $00 $00 $00 $00 $00 $00  $00 $00 $00 $00 $00 $00 $00 $00
  8440 8299 00 00 00 00 00 00 + .by  $00 $00 $00 $00 $00 $00 $00 $00  $00 $00 $00 $00 $00 $00 $00 $00  $00 $00 $00 $00 $00 $00 $00 $00
  8441 82B1 00 00 00 00 00 00 + .by  $00 $00 $00 $00 $00 $00 $00 $00  $00 $00 $00 $00 $00 $00 $00 $00  $00 $00 $00 $00 $00 $00 $00 $00
  8442 82C9 00 00 00 00 00 00 + .by  $00 $00 $00 $00 $00 $00 $00 $00  $00 $00 $00 $00 $00 $00 $00 $00  $00 $00 $00 $00 $00 $00 $00 $00
  8443 82E1 00 00 00 00 00 00 + .by  $00 $00 $00 $00 $00 $00 $00 $00  $00 $00 $00 $00 $00 $00 $00 $00  $00 $00 $00 $00 $00 $00 $00 $00
  8444 82F9 00 00 00 00 00 00 + .by  $00 $00 $00 $00 $00 $00 $00 $00  $00 $00 $00 $00 $00 $00 $00 $00  $00 $00 $00 $00 $00 $00 $00 $00
  8445 8311 00 00 00 00 00 00 + .by  $00 $00 $00 $00 $00 $00 $00 $00  $00 $00 $00 $00 $00 $00 $00 $00  $00 $00 $00 $00 $00 $00 $00 $00
  8446 8329 00 00 00 00 00 00 + .by  $00 $00 $00 $00 $00 $00 $00 $00  $00 $00 $00 $00 $00 $00 $00 $00  $00 $00 $00 $00 $00 $00 $00 $00
  8447 8341 00 00 00 00 00 00 + .by  $00 $00 $00 $00 $00 $00 $00 $00  $00 $00 $00 $00 $00 $00 $00 $00  $00 $00 $00 $00 $00 $00 $00 $00
  8448 8359 00 00 00 00 00 00 + .by  $00 $00 $00 $00 $00 $00 $00 $00  $00 $00 $00 $00 $00 $00 $00 $00  $00 $00 $00 $00 $00 $00 $00 $00
  8449 8371 00 00 00 00 00 00 + .by  $00 $00 $00 $00 $00 $00 $00 $00  $00 $00 $00 $00 $00 $00 $00 $00  $00 $00 $00 $00 $00 $00 $00 $00
  8450 8389 00 00 00 00 00 00 + .by  $00 $00 $00 $00 $00 $00 $00 $00  $00 $00 $00 $00 $00 $00 $00 $00  $00 $00 $00 $00 $00 $00 $00 $00
  8451 83A1 00 00 00 00 00 00 + .by  $00 $00 $00 $00 $00 $00 $00 $00  $00 $00 $00 $00 $00 $00 $00 $00  $00 $00 $00 $00 $00 $00 $00 $00
  8452 83B9 00 00 00 00 00 00 + .by  $00 $00 $00 $00 $00 $00 $00 $00  $00 $00 $00 $00 $00 $00 $00 $00  $00 $00 $00 $00 $00 $00 $00 $00
  8453 83D1 00 00 00 00 00 00 + .by  $00 $00 $00 $00 $00 $00 $00 $00  $00 $00 $00 $00 $00 $00 $00 $00  $00 $00 $00 $00 $00 $00 $00 $00
  8454 83E9 00 00 00 00 00 00 + .by  $00 $00 $00 $00 $00 $00 $00 $00  $00 $00 $00 $00 $00 $00 $00 $00  $00 $00 $00 $00 $00 $00 $00 $00
  8455 8401 00 00 00 00 00 00 + .by  $00 $00 $00 $00 $00 $00 $00 $00  $00 $00 $00 $00 $00 $00 $00 $00  $00 $00 $00 $00 $00 $00 $00 $00
  8456 8419 00 00 00 00 00 00 + .by  $00 $00 $00 $00 $00 $00 $00 $00  $00 $00 $00 $00 $00 $00 $00 $00  $00 $00 $00 $00 $00 $00 $00 $00
  8457 8431 00 00 00 00 00 00 + .by  $00 $00 $00 $00 $00 $00 $00 $00  $00 $00 $00 $00 $00 $00 $00 $00  $00 $00 $00 $00 $00 $00 $00 $00
  8458 8449 00 00 00 00 00 00 + .by  $00 $00 $00 $00 $00 $00 $00 $00  $00 $00 $00 $00 $00 $00 $00 $00  $00 $00 $00 $00 $00 $00 $00 $00
  8459 8461 00 00 00 00 00 00 + .by  $00 $00 $00 $00 $00 $00 $00 $00  $00 $00 $00 $00 $00 $00 $00 $00  $00 $00 $00 $00 $00 $00 $00 $00
  8460 8479 00 00 00 00 00 00 + .by  $00 $00 $00 $00 $00 $00 $00 $00  $00 $00 $00 $00 $00 $00 $00 $00  $00 $00 $00 $00 $00 $00 $00 $00
  8461 8491 00 00 00 00 00 00 + .by  $00 $00 $00 $00 $00 $00 $00 $00  $00 $00 $00 $00 $00 $00 $00 $00  $00 $00 $00 $00 $00 $00 $00 $00
  8462 84A9 00 00 00 00 00 00 + .by  $00 $00 $00 $00 $00 $00 $00 $00  $00 $00 $00 $00 $00 $00 $00 $00  $00 $00 $00 $00 $00 $00 $00 $00
  8463 84C1 00 00 00 00 00 00 + .by  $00 $00 $00 $00 $00 $00 $00 $00  $00 $00 $00 $00 $00 $00 $00 $00  $00 $00 $00 $00 $00 $00 $00 $00
  8464 84D9 00 00 00 00 00 00 + .by  $00 $00 $00 $00 $00 $00 $00 $00  $00 $00 $00 $00 $00 $00 $00 $00  $00 $00 $00 $00 $00 $00 $00 $00
  8465 84F1 00 00 00 00 00 00 + .by  $00 $00 $00 $00 $00 $00 $00 $00  $00 $00 $00 $00 $00 $00 $00 $00  $00 $00 $00 $00 $00 $00 $00 $00
  8466 8509 00 00 00 00 00 00 + .by  $00 $00 $00 $00 $00 $00 $00 $00  $00 $00 $00 $00 $00 $00 $00 $00  $00 $00 $00 $00 $00 $00 $00 $00
  8467 8521 00 00 00 00 00 00 + .by  $00 $00 $00 $00 $00 $00 $00 $00  $00 $00 $00 $00 $00 $00 $00 $00  $00 $00 $00 $00 $00 $00 $00 $00
  8468 8539 00 00 00 00 00 00 + .by  $00 $00 $00 $00 $00 $00 $00 $00  $00 $00 $00 $00 $00 $00 $00 $00  $00 $00 $00 $00 $00 $00 $00 $00
  8469 8551 00 00 00 00 00 00 + .by  $00 $00 $00 $00 $00 $00 $00 $00  $00 $00 $00 $00 $00 $00 $00 $00  $00 $00 $00 $00 $00 $00 $00 $00
  8470 8569 00 00 00 00 00 00 + .by  $00 $00 $00 $00 $00 $00 $00 $00  $00 $00 $00 $00 $00 $00 $00 $00  $00 $00 $00 $00 $00 $00 $00 $00
  8471 8581 00 00 00 00 00 00 + .by  $00 $00 $00 $00 $00 $00 $00 $00  $00 $00 $00 $00 $00 $00 $00 $00  $00 $00 $00 $00 $00 $00 $00 $00
  8472 8599 00 00 00 00 00 00 + .by  $00 $00 $00 $00 $00 $00 $00 $00  $00 $00 $00 $00 $00 $00 $00 $00  $00 $00 $00 $00 $00 $00 $00 $00
  8473 85B1 00 00 00 00 00 00 + .by  $00 $00 $00 $00 $00 $00 $00 $00  $00 $00 $00 $00 $00 $00 $00 $00  $00 $00 $00 $00 $00 $00 $00 $00
  8474 85C9 00 00 00 00 00 00 + .by  $00 $00 $00 $00 $00 $00 $00 $00  $00 $00 $00 $00 $00 $00 $00 $00  $00 $00 $00 $00 $00 $00 $00 $00
  8475 85E1 00 00 00 00 00 00 + .by  $00 $00 $00 $00 $00 $00 $00 $00  $00 $00 $00 $00 $00 $00 $00 $00  $00 $00 $00 $00 $00 $00 $00 $00
  8476 85F9 00 00 00 00 00 00 + .by  $00 $00 $00 $00 $00 $00 $00 $00  $00 $00 $00 $00 $00 $00 $00 $00  $00 $00 $00 $00 $00 $00 $00 $00
  8477 8611 00 00 00 00 00 00 + .by  $00 $00 $00 $00 $00 $00 $00 $00  $00 $00 $00 $00 $00 $00 $00 $00  $00 $00 $00 $00 $00 $00 $00 $00
  8478 8629 00 00 00 00 00 00 + .by  $00 $00 $00 $00 $00 $00 $00 $00  $00 $00 $00 $00 $00 $00 $00 $00  $00 $00 $00 $00 $00 $00 $00 $00
  8479 8641 00 00 00 00 00 00 + .by  $00 $00 $00 $00 $00 $00 $00 $00  $00 $00 $00 $00 $00 $00 $00 $00  $00 $00 $00 $00 $00 $00 $00 $00
  8480 8659 00 00 00 00 00 00 + .by  $00 $00 $00 $00 $00 $00 $00 $00  $00 $00 $00 $00 $00 $00 $00 $00  $00 $00 $00 $00 $00 $00 $00 $00
  8481 8671 00 00 00 00 00 00 + .by  $00 $00 $00 $00 $00 $00 $00 $00  $00 $00 $00 $00 $00 $00 $00 $00  $00 $00 $00 $00 $00 $00 $00 $00
  8482 8689 00 00 00 00 00 00 + .by  $00 $00 $00 $00 $00 $00 $00 $00  $00 $00 $00 $00 $00 $00 $00 $00  $00 $00 $00 $00 $00 $00 $00 $00
  8483 86A1 00 00 00 00 00 00 + .by  $00 $00 $00 $00 $00 $00 $00 $00  $00 $00 $00 $00 $00 $00 $00 $00  $00 $00 $00 $00 $00 $00 $00 $00
  8484 86B9 00 00 00 00 00 00 + .by  $00 $00 $00 $00 $00 $00 $00 $00  $00 $00 $00 $00 $00 $00 $00 $00  $00 $00 $00 $00 $00 $00 $00 $00
  8485 86D1 00 00 00 00 00 00 + .by  $00 $00 $00 $00 $00 $00 $00 $00  $00 $00 $00 $00 $00 $00 $00 $00  $00 $00 $00 $00 $00 $00 $00 $00
  8486 86E9 00 00 00 00 00 00 + .by  $00 $00 $00 $00 $00 $00 $00 $00  $00 $00 $00 $00 $00 $00 $00 $00  $00 $00 $00 $00 $00 $00 $00 $00
  8487 8701 00 00 00 00 00 00 + .by  $00 $00 $00 $00 $00 $00 $00 $00  $00 $00 $00 $00 $00 $00 $00 $00  $00 $00 $00 $00 $00 $00 $00 $00
  8488 8719 00 00 00 00 00 00 + .by  $00 $00 $00 $00 $00 $00 $00 $00  $00 $00 $00 $00 $00 $00 $00 $00  $00 $00 $00 $00 $00 $00 $00 $00
  8489 8731 00 00 00 00 00 00 + .by  $00 $00 $00 $00 $00 $00 $00 $00  $00 $00 $00 $00 $00 $00 $00 $00  $00 $00 $00 $00 $00 $00 $00 $00
  8490 8749 00 00 00 00 00 00 + .by  $00 $00 $00 $00 $00 $00 $00 $00  $00 $00 $00 $00 $00 $00 $00 $00  $00 $00 $00 $00 $00 $00 $00 $00
  8491 8761 00 00 00 00 00 00 + .by  $00 $00 $00 $00 $00 $00 $00 $00  $00 $00 $00 $00 $00 $00 $00 $00  $00 $00 $00 $00 $00 $00 $00 $00
  8492 8779 00 00 00 00 00 00 + .by  $00 $00 $00 $00 $00 $00 $00 $00  $00 $00 $00 $00 $00 $00 $00 $00  $00 $00 $00 $00 $00 $00 $00 $00
  8493 8791 00 00 00 00 00 00 + .by  $00 $00 $00 $00 $00 $00 $00 $00  $00 $00 $00 $00 $00 $00 $00 $00  $00 $00 $00 $00 $00 $00 $00 $00
  8494 87A9 00 00 00 00 00 00 + .by  $00 $00 $00 $00 $00 $00 $00 $00  $00 $00 $00 $00 $00 $00 $00 $00  $00 $00 $00 $00 $00 $00 $00 $00
  8495 87C1 00 00 00 00 00 00 + .by  $00 $00 $00 $00 $00 $00 $00 $00  $00 $00 $00 $00 $00 $00 $00 $00  $00 $00 $00 $00 $00 $00 $00 $00
  8496 87D9 00 00 00 00 00 00 + .by  $00 $00 $00 $00 $00 $00 $00 $00  $00 $00 $00 $00 $00 $00 $00 $00  $00 $00 $00 $00 $00 $00 $00 $00
  8497 87F1 00 00 00 00 00 00 + .by  $00 $00 $00 $00 $00 $00 $00 $00  $00 $00 $00 $00 $00 $00 $00 $00  $00 $00 $00 $00 $00 $00 $00 $00
  8498 8809 00 00 00 00 00 00 + .by  $00 $00 $00 $00 $00 $00 $00 $00  $00 $00 $00 $00 $00 $00 $00 $00  $00 $00 $00 $00 $00 $00 $00 $00
  8499 8821 00 00 00 00 00 00 + .by  $00 $00 $00 $00 $00 $00 $00 $00  $00 $00 $00 $00 $00 $00 $00 $00  $00 $00 $00 $00 $00 $00 $00 $00
  8500 8839 00 00 00 00 00 00 + .by  $00 $00 $00 $00 $00 $00 $00 $00  $00 $00 $00 $00 $00 $00 $00 $00  $00 $00 $00 $00 $00 $00 $00 $00
  8501 8851 00 00 00 00 00 00 + .by  $00 $00 $00 $00 $00 $00 $00 $00  $00 $00 $00 $00 $00 $00 $00 $00  $00 $00 $00 $00 $00 $00 $00 $00
  8502 8869 00 00 00 00 00 00 + .by  $00 $00 $00 $00 $00 $00 $00 $00  $00 $00 $00 $00 $00 $00 $00 $00  $00 $00 $00 $00 $00 $00 $00 $00
  8503 8881 00 00 00 00 00 00 + .by  $00 $00 $00 $00 $00 $00 $00 $00  $00 $00 $00 $00 $00 $00 $00 $00  $00 $00 $00 $00 $00 $00 $00 $00
  8504 8899 00 00 00 00 00 00 + .by  $00 $00 $00 $00 $00 $00 $00 $00  $00 $00 $00 $00 $00 $00 $00 $00  $00 $00 $00 $00 $00 $00 $00 $00
  8505 88B1 00 00 00 00 00 00 + .by  $00 $00 $00 $00 $00 $00 $00 $00  $00 $00 $00 $00 $00 $00 $00 $00  $00 $00 $00 $00 $00 $00 $00 $00
  8506 88C9 00 00 00 00 00 00 + .by  $00 $00 $00 $00 $00 $00 $00 $00  $00 $00 $00 $00 $00 $00 $00 $00  $00 $00 $00 $00 $00 $00 $00 $00
  8507 88E1 00 00 00 00 00 00 + .by  $00 $00 $00 $00 $00 $00 $00 $00  $00 $00 $00 $00 $00 $00 $00 $00  $00 $00 $00 $00 $00 $00 $00 $00
  8508 88F9 00 00 00 00 00 00 + .by  $00 $00 $00 $00 $00 $00 $00 $00  $00 $00 $00 $00 $00 $00 $00 $00  $00 $00 $00 $00 $00 $00 $00 $00
  8509 8911 00 00 00 00 00 00 + .by  $00 $00 $00 $00 $00 $00 $00 $00  $00 $00 $00 $00 $00 $00 $00 $00  $00 $00 $00 $00 $00 $00 $00 $00
  8510 8929 00 00 00 00 00 00 + .by  $00 $00 $00 $00 $00 $00 $00 $00  $00 $00 $00 $00 $00 $00 $00 $00  $00 $00 $00 $00 $00 $00 $00 $00
  8511 8941 00 00 00 00 00 00 + .by  $00 $00 $00 $00 $00 $00 $00 $00  $00 $00 $00 $00 $00 $00 $00 $00  $00 $00 $00 $00 $00 $00 $00 $00
  8512 8959 00 00 00 00 00 00 + .by  $00 $00 $00 $00 $00 $00 $00 $00  $00 $00 $00 $00 $00 $00 $00 $00  $00 $00 $00 $00 $00 $00 $00 $00
  8513 8971 00 00 00 00 00 00 + .by  $00 $00 $00 $00 $00 $00 $00 $00  $00 $00 $00 $00 $00 $00 $00 $00  $00 $00 $00 $00 $00 $00 $00 $00
  8514 8989 00 00 00 00 00 00 + .by  $00 $00 $00 $00 $00 $00 $00 $00  $00 $00 $00 $00 $00 $00 $00 $00  $00 $00 $00 $00 $00 $00 $00 $00
  8515 89A1 00 00 00 00 00 00 + .by  $00 $00 $00 $00 $00 $00 $00 $00  $00 $00 $00 $00 $00 $00 $00 $00  $00 $00 $00 $00 $00 $00 $00 $00
  8516 89B9 00 00 00 00 00 00 + .by  $00 $00 $00 $00 $00 $00 $00 $00  $00 $00 $00 $00 $00 $00 $00 $00  $00 $00 $00 $00 $00 $00 $00 $00
  8517 89D1 00 00 00 00 00 00 + .by  $00 $00 $00 $00 $00 $00 $00 $00  $00 $00 $00 $00 $00 $00 $00 $00  $00 $00 $00 $00 $00 $00 $00 $00
  8518 89E9 00 00 00 00 00 00 + .by  $00 $00 $00 $00 $00 $00 $00 $00  $00 $00 $00 $00 $00 $00 $00 $00  $00 $00 $00 $00 $00 $00 $00 $00
  8519 8A01 00 00 00 00 00 00 + .by  $00 $00 $00 $00 $00 $00 $00 $00  $00 $00 $00 $00 $00 $00 $00 $00  $00 $00 $00 $00 $00 $00 $00 $00
  8520 8A19 00 00 00 00 00 00 + .by  $00 $00 $00 $00 $00 $00 $00 $00  $00 $00 $00 $00 $00 $00 $00 $00  $00 $00 $00 $00 $00 $00 $00 $00
  8521 8A31 00 00 00 00 00 00 + .by  $00 $00 $00 $00 $00 $00 $00 $00  $00 $00 $00 $00 $00 $00 $00 $00  $00 $00 $00 $00 $00 $00 $00 $00
  8522 8A49 00 00 00 00 00 00 + .by  $00 $00 $00 $00 $00 $00 $00 $00  $00 $00 $00 $00 $00 $00 $00 $00  $00 $00 $00 $00 $00 $00 $00 $00
  8523 8A61 00 00 00 00 00 00 + .by  $00 $00 $00 $00 $00 $00 $00 $00  $00 $00 $00 $00 $00 $00 $00 $00  $00 $00 $00 $00 $00 $00 $00 $00
  8524 8A79 00 00 00 00 00 00 + .by  $00 $00 $00 $00 $00 $00 $00 $00  $00 $00 $00 $00 $00 $00 $00 $00  $00 $00 $00 $00 $00 $00 $00 $00
  8525 8A91 00 00 00 00 00 00 + .by  $00 $00 $00 $00 $00 $00 $00 $00  $00 $00 $00 $00 $00 $00 $00 $00  $00 $00 $00 $00 $00 $00 $00 $00
  8526 8AA9 00 00 00 00 00 00 + .by  $00 $00 $00 $00 $00 $00 $00 $00  $00 $00 $00 $00 $00 $00 $00 $00  $00 $00 $00 $00 $00 $00 $00 $00
  8527 8AC1 00 00 00 00 00 00 + .by  $00 $00 $00 $00 $00 $00 $00 $00  $00 $00 $00 $00 $00 $00 $00 $00  $00 $00 $00 $00 $00 $00 $00 $00
  8528 8AD9 00 00 00 00 00 00 + .by  $00 $00 $00 $00 $00 $00 $00 $00  $00 $00 $00 $00 $00 $00 $00 $00  $00 $00 $00 $00 $00 $00 $00 $00
  8529 8AF1 00 00 00 00 00 00 + .by  $00 $00 $00 $00 $00 $00 $00 $00  $00 $00 $00 $00 $00 $00 $00 $00  $00 $00 $00 $00 $00 $00 $00 $00
  8530 8B09 00 00 00 00 00 00 + .by  $00 $00 $00 $00 $00 $00 $00 $00  $00 $00 $00 $00 $00 $00 $00 $00  $00 $00 $00 $00 $00 $00 $00 $00
  8531 8B21 00 00 00 00 00 00 + .by  $00 $00 $00 $00 $00 $00 $00 $00  $00 $00 $00 $00 $00 $00 $00 $00  $00 $00 $00 $00 $00 $00 $00 $00
  8532 8B39 00 00 00 00 00 00 + .by  $00 $00 $00 $00 $00 $00 $00 $00  $00 $00 $00 $00 $00 $00 $00 $00  $00 $00 $00 $00 $00 $00 $00 $00
  8533 8B51 00 00 00 00 00 00 + .by  $00 $00 $00 $00 $00 $00 $00 $00  $00 $00 $00 $00 $00 $00 $00 $00  $00 $00 $00 $00 $00 $00 $00 $00
  8534 8B69 00 00 00 00 00 00 + .by  $00 $00 $00 $00 $00 $00 $00 $00  $00 $00 $00 $00 $00 $00 $00 $00  $00 $00 $00 $00 $00 $00 $00 $00
  8535 8B81 00 00 00 00 00 00 + .by  $00 $00 $00 $00 $00 $00 $00 $00  $00 $00 $00 $00 $00 $00 $00 $00  $00 $00 $00 $00 $00 $00 $00 $00
  8536 8B99 00 00 00 00 00 00 + .by  $00 $00 $00 $00 $00 $00 $00 $00  $00 $00 $00 $00 $00 $00 $00 $00  $00 $00 $00 $00 $00 $00 $00 $00
  8537 8BB1 00 00 00 00 00 00 + .by  $00 $00 $00 $00 $00 $00 $0F $01  $02 $03 $04 $05 $06 $07 $08 $09  $0A $0B $0C $0D $0E $00 $00 $00
  8538 8BC9 00 00 00 00 00 00 + .by  $00 $00 $00 $00 $00 $00 $00 $00  $00 $00 $00 $00 $00 $00 $00 $00  $00 $00 $00 $00 $00 $00 $00 $00
  8539 8BE1 00 00 00 00 00 00 + .by  $00 $00 $00 $00 $00 $00 $00 $00  $00 $00 $00 $FF $00 $00 $C1 $00  $00 $81 $00 $00 $81 $00 $00 $81
  8540 8BF9 00 00 81 00 00 83 + .by  $00 $00 $81 $00 $00 $83 $00 $00  $FF $00 $00 $00 $00 $00 $00 $00  $00 $00 $00 $00 $00 $00 $00 $00
  8541 8C11 00 00 00 00 00 00 + .by  $00 $00 $00 $00 $00 $00 $00 $00  $00 $00 $00 $00 $00 $00 $00 $00  $00 $00 $00 $00 $00 $00 $00 $00
  8542 8C29 00 00 00 00 00 00 + .by  $00 $00 $00 $00 $00 $00 $00 $00  $00 $00 $00 $00 $00 $00 $00 $00  $00 $00 $00 $00 $00 $00 $00 $00
  8543 8C41 00 00 00 00 00 00 + .by  $00 $00 $00 $00 $00 $00 $00 $00  $00 $00 $00 $00 $00 $00 $00 $00  $00 $00 $00 $00 $00 $00 $00 $00
  8544 8C59 00 00 00 00 00 00 + .by  $00 $00 $00 $00 $00 $00 $00 $00  $00 $00 $00 $00 $00 $00 $00 $00  $00 $00 $80 $00 $00 $00 $00 $00
  8545 8C71 00 00 00 00 00 00 + .by  $00 $00 $00 $00 $00 $00 $00 $00  $00 $00 $00 $00 $00 $00 $00 $00  $00 $00 $00 $00 $00 $00 $00 $00
  8546 8C89 00 00 00 00 00 00 + .by  $00 $00 $00 $00 $00 $00 $00 $00  $00 $00 $00 $00 $00 $00 $00 $00  $00 $00 $00 $00 $00 $00 $00 $00
  8547 8CA1 00 00 00 00 00 00 + .by  $00 $00 $00 $00 $00 $00 $00 $00  $00 $00 $80 $00 $00 $00 $00 $00  $00 $00 $00 $00 $00 $00 $00 $00
  8548 8CB9 00 00 00 00 00 00 + .by  $00 $00 $00 $00 $00 $00 $00 $00  $00 $00 $00 $00 $00 $00 $00 $00  $00 $00 $00 $00 $00 $00 $00 $00
  8549 8CD1 00 00 00 00 00 00 + .by  $00 $00 $00 $00 $00 $00 $00 $00  $00 $00 $00 $00 $00 $00 $00 $00  $00 $00 $00 $00 $00 $00 $00 $00
  8550 8CE9 00 00 80 00 00 00 + .by  $00 $00 $80 $00 $00 $00 $00 $00  $00 $00 $00 $00 $00 $00 $00 $00  $00 $00 $00 $00 $00 $00 $00 $00
  8551 8D01 00 00 00 00 00 00 + .by  $00 $00 $00 $00 $00 $00 $00 $00  $00 $00 $00 $00 $00 $00 $00 $00  $00 $00 $00 $00 $00 $00 $00 $00
  8552 8D19 00 00 00 00 00 00 + .by  $00 $00 $00 $00 $00 $00 $00 $00  $00 $00 $00 $00 $00 $00 $00 $00  $00 $00 $80 $00 $00 $00 $00 $00
  8553 8D31 00 00 00 00 00 00 + .by  $00 $00 $00 $00 $00 $00 $00 $00  $00 $00 $00 $00 $00 $00 $00 $00  $00 $00 $00 $00 $00 $00 $00 $00
  8554 8D49 00 00 00 00 00 00 + .by  $00 $00 $00 $00 $00 $00 $00 $00  $00 $00 $00 $00 $00 $00 $00 $00  $00 $00 $00 $00 $00 $00 $00 $00
  8555 8D61 00 00 00 00 00 00 + .by  $00 $00 $00 $00 $00 $00 $00 $00  $00 $00 $80 $00 $00 $00 $00 $00  $00 $00 $00 $00 $00 $00 $00 $00
  8556 8D79 00 00 00 00 00 00 + .by  $00 $00 $00 $00 $00 $00 $00 $00  $00 $00 $00 $00 $00 $00 $00 $00  $00 $00 $00 $00 $00 $00 $00 $00
  8557 8D91 00 00 00 00 00 00 + .by  $00 $00 $00 $00 $00 $00 $00 $00  $00 $00 $00 $00 $00 $00 $00 $00  $00 $00 $00 $00 $00 $00 $00 $00
  8558 8DA9 00 00 80 00 00 00 + .by  $00 $00 $80 $00 $00 $00 $00 $00  $00 $00 $00 $00 $00 $00 $00 $00  $00 $00 $00 $00 $00 $00 $00 $00
  8559 8DC1 00 00 00 00 00 00 + .by  $00 $00 $00 $00 $00 $00 $00 $00  $00 $00 $00 $00 $00 $00 $00 $00  $00 $00 $00 $00 $00 $00 $00 $00
  8560 8DD9 00 00 00 00 00 00 + .by  $00 $00 $00 $00 $00 $00 $00 $00  $00 $00 $00 $00 $00 $00 $00 $00  $00 $00 $80 $00 $00 $00 $00 $00
  8561 8DF1 00 00 00 00 00 00 + .by  $00 $00 $00 $00 $00 $00 $00 $00  $00 $00 $00 $00 $00 $00 $00 $00  $00 $00 $00 $00 $00 $00 $00 $00
  8562 8E09 00 00 00 00 00 00 + .by  $00 $00 $00 $00 $00 $00 $00 $00  $00 $00 $00 $00 $00 $00 $00 $00  $00 $00 $00 $00 $00 $00 $00 $00
  8563 8E21 00 00 00 00 00 00 + .by  $00 $00 $00 $00 $00 $00 $00 $00  $00 $00 $80 $00 $00 $00 $00 $00  $00 $00 $00 $00 $00 $00 $00 $00
  8564 8E39 00 00 00 00 00 00 + .by  $00 $00 $00 $00 $00 $00 $00 $00  $00 $00 $00 $00 $00 $00 $00 $00  $00 $00 $00 $00 $00 $00 $00 $00
  8565 8E51 00 00 00 00 00 00 + .by  $00 $00 $00 $00 $00 $00 $00 $00  $00 $00 $00 $00 $00 $00 $00 $00  $00 $00 $00 $00 $00 $00 $00 $00
  8566 8E69 00 00 80 00 00 00 + .by  $00 $00 $80 $00 $00 $00 $00 $00  $00 $00 $00 $00 $00 $00 $00 $00  $00 $00 $00 $00 $00 $00 $00 $00
  8567 8E81 00 00 00 00 00 00 + .by  $00 $00 $00 $00 $00 $00 $00 $00  $00 $00 $00 $00 $00 $00 $00 $00  $00 $00 $00 $00 $00 $00 $00 $00
  8568 8E99 00 00 00 00 00 00 + .by  $00 $00 $00 $00 $00 $00 $00 $00  $00 $00 $00 $00 $00 $00 $00 $00  $00 $00 $80 $00 $00 $00 $00 $00
  8569 8EB1 00 00 00 00 00 00 + .by  $00 $00 $00 $00 $00 $00 $00 $00  $00 $00 $00 $00 $00 $00 $00 $00  $00 $00 $00 $00 $00 $00 $00 $00
  8570 8EC9 00 00 00 00 00 00 + .by  $00 $00 $00 $00 $00 $00 $00 $00  $00 $00 $00 $00 $00 $00 $00 $00  $00 $00 $00 $00 $00 $00 $00 $00
  8571 8EE1 00 00 00 00 00 00 + .by  $00 $00 $00 $00 $00 $00 $00 $00  $00 $00 $80 $00 $00 $00 $00 $00  $00 $00 $00 $00 $00 $00 $00 $00
  8572 8EF9 00 00 00 00 00 00 + .by  $00 $00 $00 $00 $00 $00 $00 $00  $00 $00 $00 $00 $00 $00 $00 $00  $00 $00 $00 $00 $00 $00 $00 $00
  8573 8F11 00 00 00 00 00 00 + .by  $00 $00 $00 $00 $00 $00 $00 $00  $00 $00 $00 $00 $00 $00 $00 $00  $00 $00 $00 $00 $00 $00 $00 $00
  8574 8F29 00 00 80 00 00 00 + .by  $00 $00 $80 $00 $00 $00 $00 $00  $00 $00 $00 $00 $00 $00 $00 $00  $00 $00 $00 $00 $00 $00 $00 $00
  8575 8F41 00 00 00 00 00 00 + .by  $00 $00 $00 $00 $00 $00 $00 $00  $00 $00 $00 $00 $00 $00 $00 $00  $00 $00 $00 $00 $00 $00 $00 $00
  8576 8F59 00 00 00 00 00 00 + .by  $00 $00 $00 $00 $00 $00 $00 $00  $00 $00 $00 $00 $00 $00 $00 $00  $00 $00 $80 $00 $00 $00 $00 $00
  8577 8F71 00 00 00 00 00 00 + .by  $00 $00 $00 $00 $00 $00 $00 $00  $00 $00 $00 $00 $00 $00 $00 $00  $00 $00 $00 $00 $00 $00 $00 $00
  8578 8F89 00 00 00 00 00 00 + .by  $00 $00 $00 $00 $00 $00 $00 $00  $00 $00 $00 $00 $00 $00 $00 $00  $00 $00 $00 $00 $00 $00 $00 $00
  8579 8FA1 00 00 00 00 00 00 + .by  $00 $00 $00 $00 $00 $00 $00 $00  $00 $00 $80 $00 $00 $00 $00 $00  $00 $00 $00 $00 $00 $00 $00 $00
  8580 8FB9 00 00 00 00 00 00 + .by  $00 $00 $00 $00 $00 $00 $00 $00  $00 $00 $00 $00 $00 $00 $00 $00  $00 $00 $00 $00 $00 $00 $00 $00
  8581 8FD1 00 00 00 00 00 00 + .by  $00 $00 $00 $00 $00 $00 $00 $00  $00 $00 $00 $00 $00 $00 $00 $00  $00 $00 $00 $00 $00 $00 $00 $00
  8582 8FE9 00 00 80 00 00 00 + .by  $00 $00 $80 $00 $00 $00 $00 $00  $00 $00 $00 $00 $00 $00 $00 $00  $00 $00 $00 $00 $00 $00 $00 $00
  8583 9001 00 00 00 00 00 00 + .by  $00 $00 $00 $00 $00 $00 $00 $00  $00 $00 $00 $00 $00 $00 $00 $00  $00 $00 $00 $00 $00 $00 $00 $00
  8584 9019 00 00 00 00 00 00 + .by  $00 $00 $00 $00 $00 $00 $00 $00  $00 $00 $00 $00 $00 $00 $00 $00  $00 $00 $80 $00 $00 $00 $00 $00
  8585 9031 00 00 00 00 00 00 + .by  $00 $00 $00 $00 $00 $00 $00 $00  $00 $00 $00 $00 $00 $00 $00 $00  $00 $00 $00 $00 $00 $00 $00 $00
  8586 9049 00 00 00 00 00 00 + .by  $00 $00 $00 $00 $00 $00 $00 $00  $00 $00 $00 $00 $00 $00 $00 $00  $00 $00 $00 $00 $00 $00 $00 $00
  8587 9061 00 00 00 00 00 00 + .by  $00 $00 $00 $00 $00 $00 $00 $00  $00 $00 $80 $00 $00 $00 $00 $00  $00 $00 $00 $00 $00 $00 $00 $00
  8588 9079 00 00 00 00 00 00 + .by  $00 $00 $00 $00 $00 $00 $00 $00  $00 $00 $00 $00 $00 $00 $00 $00  $00 $00 $00 $00 $00 $00 $00 $00
  8589 9091 00 00 00 00 00 00 + .by  $00 $00 $00 $00 $00 $00 $00 $00  $00 $00 $00 $00 $00 $00 $00 $00  $00 $00 $00 $00 $00 $00 $00 $00
  8590 90A9 00 00 80 00 00 00 + .by  $00 $00 $80 $00 $00 $00 $00 $00  $00 $00 $00 $00 $00 $00 $00 $00  $00 $00 $00 $00 $00 $00 $00 $00
  8591 90C1 00 00 00 00 00 00 + .by  $00 $00 $00 $00 $00 $00 $00 $00  $00 $00 $00 $00 $00 $00 $00 $00  $00 $00 $00 $00 $00 $00 $00 $00
  8592 90D9 00 00 00 00 00 00 + .by  $00 $00 $00 $00 $00 $00 $00 $00  $00 $00 $00 $00 $00 $00 $00 $00  $00 $00 $80 $00 $00 $00 $00 $00
  8593 90F1 00 00 00 00 00 00 + .by  $00 $00 $00 $00 $00 $00 $00 $00  $00 $00 $00 $00 $00 $00 $00 $00  $00 $00 $00 $00 $00 $00 $00 $00
  8594 9109 00 00 00 00 00 00 + .by  $00 $00 $00 $00 $00 $00 $00 $00  $00 $00 $00 $00 $00 $00 $00 $00  $00 $00 $00 $00 $00 $00 $00 $00
  8595 9121 00 00 00 00 00 00 + .by  $00 $00 $00 $00 $00 $00 $00 $00  $00 $00 $80 $00 $00 $00 $00 $00  $00 $00 $00 $00 $00 $00 $00 $00
  8596 9139 00 00 00 00 00 00 + .by  $00 $00 $00 $00 $00 $00 $00 $00  $00 $00 $00 $00 $00 $00 $00 $00  $00 $00 $00 $00 $00 $00 $00 $00
  8597 9151 00 00 00 00 00 00 + .by  $00 $00 $00 $00 $00 $00 $00 $00  $00 $00 $00 $00 $00 $00 $00 $00  $00 $00 $00 $00 $00 $00 $00 $00
  8598 9169 00 00 80 00 00 00 + .by  $00 $00 $80 $00 $00 $00 $00 $00  $00 $00 $00 $00 $00 $00 $00 $00  $00 $00 $00 $00 $00 $00 $00 $00
  8599 9181 00 00 00 00 00 00 + .by  $00 $00 $00 $00 $00 $00 $00 $00  $00 $00 $00 $00 $00 $00 $00 $00  $00 $00 $00 $00 $00 $00 $00 $00
  8600 9199 00 00 00 00 00 00 + .by  $00 $00 $00 $00 $00 $00 $00 $00  $00 $00 $00 $00 $00 $00 $00 $00  $00 $00 $80 $00 $00 $00 $00 $00
  8601 91B1 00 00 00 00 00 00 + .by  $00 $00 $00 $00 $00 $00 $00 $00  $00 $00 $00 $00 $00 $00 $00 $00  $00 $00 $00 $00 $00 $00 $00 $00
  8602 91C9 00 00 00 00 00 00 + .by  $00 $00 $00 $00 $00 $00 $00 $00  $00 $00 $00 $00 $00 $00 $00 $00  $00 $00 $00 $00 $00 $00 $00 $00
  8603 91E1 00 00 00 00 00 00 + .by  $00 $00 $00 $00 $00 $00 $00 $00  $00 $00 $80 $00 $00 $00 $00 $00  $00 $00 $00 $00 $00 $00 $00 $00
  8604 91F9 00 00 00 00 00 00 + .by  $00 $00 $00 $00 $00 $00 $00 $00  $00 $00 $00 $00 $00 $00 $00 $00  $00 $00 $00 $00 $00 $00 $00 $00
  8605 9211 00 00 00 00 00 00 + .by  $00 $00 $00 $00 $00 $00 $00 $00  $00 $00 $00 $00 $00 $00 $00 $00  $00 $00 $00 $00 $00 $00 $00 $00
  8606 9229 00 00 80 00 00 00 + .by  $00 $00 $80 $00 $00 $00 $00 $00  $00 $00 $00 $00 $00 $00 $00 $00  $00 $00 $00 $00 $00 $00 $00 $00
  8607 9241 00 00 00 00 00 00 + .by  $00 $00 $00 $00 $00 $00 $00 $00  $00 $00 $00 $00 $00 $00 $00 $00  $00 $00 $00 $00 $00 $00 $00 $00
  8608 9259 00 00 00 00 00 00 + .by  $00 $00 $00 $00 $00 $00 $00 $00  $00 $00 $00 $00 $00 $00 $00 $00  $00 $00 $80 $00 $00 $00 $00 $00
  8609 9271 00 00 00 00 00 00 + .by  $00 $00 $00 $00 $00 $00 $00 $00  $00 $00 $00 $00 $00 $00 $00 $00  $00 $00 $00 $00 $00 $00 $00 $00
  8610 9289 00 00 00 00 00 00 + .by  $00 $00 $00 $00 $00 $00 $00 $00  $00 $00 $00 $00 $00 $00 $00 $00  $00 $00 $00 $00 $00 $00 $00 $00
  8611 92A1 00 00 00 00 00 00 + .by  $00 $00 $00 $00 $00 $00 $00 $00  $00 $00 $80 $00 $00 $00 $00 $00  $00 $00 $00 $00 $00 $00 $00 $00
  8612 92B9 00 00 00 00 00 00 + .by  $00 $00 $00 $00 $00 $00 $00 $00  $00 $00 $00 $00 $00 $00 $00 $00  $00 $00 $00 $00 $00 $00 $00 $00
  8613 92D1 00 00 00 00 00 00 + .by  $00 $00 $00 $00 $00 $00 $00 $00  $00 $00 $00 $00 $00 $00 $00 $00  $00 $00 $00 $00 $00 $00 $00 $00
  8614 92E9 00 00 80 00 00 00 + .by  $00 $00 $80 $00 $00 $00 $00 $00  $00 $00 $00 $00 $00 $00 $00 $00  $00 $00 $00 $00 $00 $00 $00 $00
  8615 9301 00 00 00 00 00 00 + .by  $00 $00 $00 $00 $00 $00 $00 $00  $00 $00 $00 $00 $00 $00 $00 $00  $00 $00 $00 $00 $00 $00 $00 $00
  8616 9319 00 00 00 00 00 00 + .by  $00 $00 $00 $00 $00 $00 $00 $00  $00 $00 $00 $00 $00 $00 $00 $00  $00 $00 $80 $00 $00 $00 $00 $00
  8617 9331 00 00 00 00 00 00 + .by  $00 $00 $00 $00 $00 $00 $00 $00  $00 $00 $00 $00 $00 $00 $00 $00  $00 $00 $00 $00 $00 $00 $00 $00
  8618 9349 00 00 00 00 00 00 + .by  $00 $00 $00 $00 $00 $00 $00 $00  $00 $00 $00 $00 $00 $00 $00 $00  $00 $00 $00 $00 $00 $00 $00 $00
  8619 9361 00 00 00 00 00 00 + .by  $00 $00 $00 $00 $00 $00 $00 $00  $00 $00 $80 $00 $00 $00 $00 $00  $00 $00 $00 $00 $00 $00 $00 $00
  8620 9379 00 00 00 00 00 00 + .by  $00 $00 $00 $00 $00 $00 $00 $00  $00 $00 $00 $00 $00 $00 $00 $00  $00 $00 $00 $00 $00 $00 $00 $00
  8621 9391 00 00 00 00 00 00 + .by  $00 $00 $00 $00 $00 $00 $00 $00  $00 $00 $00 $00 $00 $00 $00 $00  $00 $00 $00 $00 $00 $00 $00 $00
  8622 93A9 00 00 80 00 00 00 + .by  $00 $00 $80 $00 $00 $00 $00 $00  $00 $00 $00 $00 $00 $00 $00 $00  $00 $00 $00 $00 $00 $00 $00 $00
  8623 93C1 00 00 00 00 00 00 + .by  $00 $00 $00 $00 $00 $00 $00 $00  $00 $00 $00 $00 $00 $00 $00 $00  $00 $00 $00 $00 $00 $00 $00 $00
  8624 93D9 00 00 00 00 00 00 + .by  $00 $00 $00 $00 $00 $00 $00 $00  $00 $00 $00 $00 $00 $00 $00 $00  $00 $00 $80 $00 $00 $00 $00 $00
  8625 93F1 00 00 00 00 00 00 + .by  $00 $00 $00 $00 $00 $00 $00 $00  $00 $00 $00 $00 $00 $00 $00 $00  $00 $00 $00 $00 $00 $00 $00 $00
  8626 9409 00 00 00 00 00 00 + .by  $00 $00 $00 $00 $00 $00 $00 $00  $00 $00 $00 $00 $00 $00 $00 $00  $00 $00 $00 $00 $00 $00 $00 $00
  8627 9421 00 00 00 00 00 00 + .by  $00 $00 $00 $00 $00 $00 $00 $00  $00 $00 $80 $00 $00 $00 $00 $00  $00 $00 $00 $00 $00 $00 $00 $00
  8628 9439 00 00 00 00 00 00 + .by  $00 $00 $00 $00 $00 $00 $00 $00  $00 $00 $00 $00 $00 $00 $00 $00  $00 $00 $00 $00 $00 $00 $00 $00
  8629 9451 00 00 00 00 00 00 + .by  $00 $00 $00 $00 $00 $00 $00 $00  $00 $00 $00 $00 $00 $00 $00 $00  $00 $00 $00 $00 $00 $00 $00 $00
  8630 9469 00 00 80 00 00 00 + .by  $00 $00 $80 $00 $00 $00 $00 $00  $00 $00 $00 $00 $00 $00 $00 $00  $00 $00 $00 $00 $00 $00 $00 $00
  8631 9481 00 00 00 00 00 00 + .by  $00 $00 $00 $00 $00 $00 $00 $00  $00 $00 $00 $00 $00 $00 $00 $00  $00 $00 $00 $00 $00 $00 $00 $00
  8632 9499 00 00 00 00 00 00 + .by  $00 $00 $00 $00 $00 $00 $00 $00  $00 $00 $00 $00 $00 $00 $00 $00  $00 $00 $80 $00 $00 $00 $00 $00
  8633 94B1 00 00 00 00 00 00 + .by  $00 $00 $00 $00 $00 $00 $00 $00  $00 $00 $00 $00 $00 $00 $00 $00  $00 $00 $00 $00 $00 $00 $00 $00
  8634 94C9 00 00 00 00 00 00 + .by  $00 $00 $00 $00 $00 $00 $00 $00  $00 $00 $00 $00 $00 $00 $00 $00  $00 $00 $00 $00 $00 $00 $00 $00
  8635 94E1 00 00 00 00 00 00 + .by  $00 $00 $00 $00 $00 $00 $00 $00  $00 $00 $80 $00 $00 $00 $00 $00  $00 $00 $00 $00 $00 $00 $00 $00
  8636 94F9 00 00 00 00 00 00 + .by  $00 $00 $00 $00 $00 $00 $00 $00  $00 $00 $00 $00 $00 $00 $00 $00  $00 $00 $00 $00 $00 $00 $00 $00
  8637 9511 00 00 00 00 00 00 + .by  $00 $00 $00 $00 $00 $00 $00 $00  $00 $00 $00 $00 $00 $00 $00 $00  $00 $00 $00 $00 $00 $00 $00 $00
  8638 9529 00 00 80 00 00 00 + .by  $00 $00 $80 $00 $00 $00 $00 $00  $00 $00 $00 $00 $00 $00 $00 $00  $00 $00 $00 $00 $00 $00 $00 $00
  8639 9541 00 00 00 00 00 00 + .by  $00 $00 $00 $00 $00 $00 $00 $00  $00 $00 $00 $00 $00 $00 $00 $00  $00 $00 $00 $00 $00 $00 $00 $00
  8640 9559 00 00 00 00 00 00 + .by  $00 $00 $00 $00 $00 $00 $00 $00  $00 $00 $00 $00 $00 $00 $00 $00  $00 $00 $80 $00 $00 $00 $00 $00
  8641 9571 00 00 00 00 00 00 + .by  $00 $00 $00 $00 $00 $00 $00 $00  $00 $00 $00 $00 $00 $00 $00 $00  $00 $00 $00 $00 $00 $00 $00 $00
  8642 9589 00 00 00 00 00 00 + .by  $00 $00 $00 $00 $00 $00 $00 $00  $00 $00 $00 $00 $00 $00 $00 $00  $00 $00 $00 $00 $00 $00 $00 $00
  8643 95A1 00 00 00 00 00 00 + .by  $00 $00 $00 $00 $00 $00 $00 $00  $00 $00 $80 $00 $00 $00 $00 $00  $00 $00 $00 $00 $00 $00 $00 $00
  8644 95B9 00 00 00 00 00 00 + .by  $00 $00 $00 $00 $00 $00 $00 $00  $00 $00 $00 $00 $00 $00 $00 $00  $00 $00 $00 $00 $00 $00 $00 $00
  8645 95D1 00 00 00 00 00 00 + .by  $00 $00 $00 $00 $00 $00 $00 $00  $00 $00 $00 $00 $00 $00 $00 $00  $00 $00 $00 $00 $00 $00 $00 $00
  8646 95E9 00 00 80 00 00 00 + .by  $00 $00 $80 $00 $00 $00 $00 $00  $00 $00 $00 $00 $00 $00 $00 $00  $00 $00 $00 $00 $00 $00 $00 $00
  8647 9601 00 00 00 00 00 00 + .by  $00 $00 $00 $00 $00 $00 $00 $00  $00 $00 $00 $00 $00 $00 $00 $00  $00 $00 $00 $00 $00 $00 $00 $00
  8648 9619 00 00 00 00 00 00 + .by  $00 $00 $00 $00 $00 $00 $00 $00  $00 $00 $00 $00 $00 $00 $00 $00  $00 $00 $80 $00 $00 $00 $00 $00
  8649 9631 00 00 00 00 00 00 + .by  $00 $00 $00 $00 $00 $00 $00 $00  $00 $00 $00 $00 $00 $00 $00 $00  $00 $00 $00 $00 $00 $00 $00 $00
  8650 9649 00 00 00 00 00 00 + .by  $00 $00 $00 $00 $00 $00 $00 $00  $00 $00 $00 $00 $00 $00 $00 $00  $00 $00 $00 $00 $00 $00 $00 $00
  8651 9661 00 00 00 00 00 00 + .by  $00 $00 $00 $00 $00 $00 $00 $00  $00 $00 $80 $00 $00 $00 $00 $00  $00 $00 $00 $00 $00 $00 $00 $00
  8652 9679 00 00 00 00 00 00 + .by  $00 $00 $00 $00 $00 $00 $00 $00  $00 $00 $00 $00 $00 $00 $00 $00  $00 $00 $00 $00 $00 $00 $00 $00
  8653 9691 00 00 00 00 00 00 + .by  $00 $00 $00 $00 $00 $00 $00 $00  $00 $00 $00 $00 $00 $00 $00 $00  $00 $00 $00 $00 $00 $00 $00 $00
  8654 96A9 00 00 80 00 00 00 + .by  $00 $00 $80 $00 $00 $00 $00 $00  $00 $00 $00 $00 $00 $00 $00 $00  $00 $00 $00 $00 $00 $00 $00 $00
  8655 96C1 00 00 00 00 00 00 + .by  $00 $00 $00 $00 $00 $00 $00 $00  $00 $00 $00 $00 $00 $00 $00 $00  $00 $00 $00 $00 $00 $00 $00 $00
  8656 96D9 00 00 00 00 00 00 + .by  $00 $00 $00 $00 $00 $00 $00 $00  $00 $00 $00 $00 $00 $00 $00 $00  $00 $00 $80 $00 $00 $00 $00 $00
  8657 96F1 00 00 00 00 00 00 + .by  $00 $00 $00 $00 $00 $00 $00 $00  $00 $00 $00 $00 $00 $00 $00 $00  $00 $00 $00 $00 $00 $00 $00 $00
  8658 9709 00 00 00 00 00 00 + .by  $00 $00 $00 $00 $00 $00 $00 $00  $00 $00 $00 $00 $00 $00 $00 $00  $00 $00 $00 $00 $00 $00 $00 $00
  8659 9721 00 00 00 00 00 00 + .by  $00 $00 $00 $00 $00 $00 $00 $00  $00 $00 $80 $00 $00 $00 $00 $00  $00 $00 $00 $00 $00 $00 $00 $00
  8660 9739 00 00 00 00 00 00 + .by  $00 $00 $00 $00 $00 $00 $00 $00  $00 $00 $00 $00 $00 $00 $00 $00  $00 $00 $00 $00 $00 $00 $00 $00
  8661 9751 00 00 00 00 00 00 + .by  $00 $00 $00 $00 $00 $00 $00 $00  $00 $00 $00 $00 $00 $00 $00 $00  $00 $00 $00 $00 $00 $00 $00 $00
  8662 9769 00 00 80 00 00 00 + .by  $00 $00 $80 $00 $00 $00 $00 $00  $00 $00 $00 $00 $00 $00 $00 $00  $00 $00 $00 $00 $00 $00 $00 $00
  8663 9781 00 00 00 00 00 00 + .by  $00 $00 $00 $00 $00 $00 $00 $00  $00 $00 $00 $00 $00 $00 $00 $00  $00 $00 $00 $00 $00 $00 $00 $00
  8664 9799 00 00 00 00 00 00 + .by  $00 $00 $00 $00 $00 $00 $00 $00  $00 $00 $00 $00 $00 $00 $00 $00  $00 $00 $80 $00 $00 $00 $00 $00
  8665 97B1 00 00 00 00 00 00 + .by  $00 $00 $00 $00 $00 $00 $00 $00  $00 $00 $00 $00 $00 $00 $00 $00  $00 $00 $00 $00 $00 $00 $00 $00
  8666 97C9 00 00 00 00 00 00 + .by  $00 $00 $00 $00 $00 $00 $00 $00  $00 $00 $00 $00 $00 $00 $00 $00  $00 $00 $00 $00 $00 $00 $00 $00
  8667 97E1 00 00 00 00 00 00 + .by  $00 $00 $00 $00 $00 $00 $00 $00  $00 $00 $80 $00 $00 $00 $00 $00  $00 $00 $00 $00 $00 $00 $00 $00
  8668 97F9 00 00 00 00 00 00 + .by  $00 $00 $00 $00 $00 $00 $00 $00  $00 $00 $00 $00 $00 $00 $00 $00  $00 $00 $00 $00 $00 $00 $00 $00
  8669 9811 00 00 00 00 00 00 + .by  $00 $00 $00 $00 $00 $00 $00 $00  $00 $00 $00 $00 $00 $00 $00 $00  $00 $00 $00 $00 $00 $00 $00 $00
  8670 9829 00 00 80 00 00 00 + .by  $00 $00 $80 $00 $00 $00 $00 $00  $00 $00 $00 $00 $00 $00 $00 $00  $00 $00 $00 $00 $00 $00 $00 $00
  8671 9841 00 00 00 00 00 00 + .by  $00 $00 $00 $00 $00 $00 $00 $00  $00 $00 $00 $00 $00 $00 $00 $00  $00 $00 $00 $00 $00 $00 $00 $00
  8672 9859 00 00 00 00 00 00 + .by  $00 $00 $00 $00 $00 $00 $00 $00  $00 $00 $00 $00 $00 $00 $00 $00  $00 $00 $80 $00 $00 $00 $00 $00
  8673 9871 00 00 00 00 00 00 + .by  $00 $00 $00 $00 $00 $00 $00 $00  $00 $00 $00 $00 $00 $00 $00 $00  $00 $00 $00 $00 $00 $00 $00 $00
  8674 9889 00 00 00 00 00 00 + .by  $00 $00 $00 $00 $00 $00 $00 $00  $00 $00 $00 $00 $00 $00 $00 $00  $00 $00 $00 $00 $00 $00 $00 $00
  8675 98A1 00 00 00 00 00 00 + .by  $00 $00 $00 $00 $00 $00 $00 $00  $00 $00 $80 $00 $00 $00 $00 $00  $00 $00 $00 $00 $00 $00 $00 $00
  8676 98B9 00 00 00 00 00 00 + .by  $00 $00 $00 $00 $00 $00 $00 $00  $00 $00 $00 $00 $00 $00 $00 $00  $00 $00 $00 $00 $00 $00 $00 $00
  8677 98D1 00 00 00 00 00 00 + .by  $00 $00 $00 $00 $00 $00 $00 $00  $00 $00 $00 $00 $00 $00 $00 $00  $00 $00 $00 $00 $00 $00 $00 $00
  8678 98E9 00 00 80 00 00 00 + .by  $00 $00 $80 $00 $00 $00 $00 $00  $00 $00 $00 $00 $00 $00 $00 $00  $00 $00 $00 $00 $00 $00 $00 $00
  8679 9901 00 00 00 00 00 00 + .by  $00 $00 $00 $00 $00 $00 $00 $00  $00 $00 $00 $00 $00 $00 $00 $00  $00 $00 $00 $00 $00 $00 $00 $00
  8680 9919 00 00 00 00 00 00 + .by  $00 $00 $00 $00 $00 $00 $00 $00  $00 $00 $00 $00 $00 $00 $00 $00  $00 $00 $80 $00 $00 $00 $00 $00
  8681 9931 00 00 00 00 00 00 + .by  $00 $00 $00 $00 $00 $00 $00 $00  $00 $00 $00 $00 $00 $00 $00 $00  $00 $00 $00 $00 $00 $00 $00 $00
  8682 9949 00 00 00 00 00 00 + .by  $00 $00 $00 $00 $00 $00 $00 $00  $00 $00 $00 $00 $00 $00 $00 $00  $00 $00 $00 $00 $00 $00 $00 $00
  8683 9961 00 00 00 00 00 00 + .by  $00 $00 $00 $00 $00 $00 $00 $00  $00 $00 $80 $00 $00 $00 $00 $00  $00 $00 $00 $00 $00 $00 $00 $00
  8684 9979 00 00 00 00 00 00 + .by  $00 $00 $00 $00 $00 $00 $00 $00  $00 $00 $00 $00 $00 $00 $00 $00  $00 $00 $00 $00 $00 $00 $00 $00
  8685 9991 00 00 00 00 00 00 + .by  $00 $00 $00 $00 $00 $00 $00 $00  $00 $00 $00 $00 $00 $00 $00 $00  $00 $00 $00 $00 $00 $00 $00 $00
  8686 99A9 00 00 80 00 00 00 + .by  $00 $00 $80 $00 $00 $00 $00 $00  $00 $00 $00 $00 $00 $00 $00 $00  $00 $00 $00 $00 $00 $00 $00 $00
  8687 99C1 00 00 00 00 00 00 + .by  $00 $00 $00 $00 $00 $00 $00 $00  $00 $00 $00 $00 $00 $00 $00 $00  $00 $00 $00 $00 $00 $00 $00 $00
  8688 99D9 00 00 00 00 00 00 + .by  $00 $00 $00 $00 $00 $00 $00 $00  $00 $00 $00 $00 $00 $00 $00 $00  $00 $00 $80 $00 $00 $00 $00 $00
  8689 99F1 00 00 00 00 00 00 + .by  $00 $00 $00 $00 $00 $00 $00 $00  $00 $00 $00 $00 $00 $00 $00 $00  $00 $00 $00 $00 $00 $00 $00 $00
  8690 9A09 00 00 00 00 00 00 + .by  $00 $00 $00 $00 $00 $00 $00 $00  $00 $00 $00 $00 $00 $00 $00 $00  $00 $00 $00 $00 $00 $00 $00 $00
  8691 9A21 00 00 00 00 00 00 + .by  $00 $00 $00 $00 $00 $00 $00 $00  $00 $00 $80 $00 $00 $00 $00 $00  $00 $00 $00 $00 $00 $00 $00 $00
  8692 9A39 00 00 00 00 00 00 + .by  $00 $00 $00 $00 $00 $00 $00 $00  $00 $00 $00 $00 $00 $00 $00 $00  $00 $00 $00 $00 $00 $00 $00 $00
  8693 9A51 00 00 00 00 00 00 + .by  $00 $00 $00 $00 $00 $00 $00 $00  $00 $00 $00 $00 $00 $00 $00 $00  $00 $00 $00 $00 $00 $00 $00 $00
  8694 9A69 00 00 80 00 00 00 + .by  $00 $00 $80 $00 $00 $00 $00 $00  $00 $00 $00 $00 $00 $00 $00 $00  $00 $00 $00 $00 $00 $00 $00 $00
  8695 9A81 00 00 00 00 00 00 + .by  $00 $00 $00 $00 $00 $00 $00 $00  $00 $00 $00 $00 $00 $00 $00 $00  $00 $00 $00 $00 $00 $00 $00 $00
  8696 9A99 00 00 00 00 00 00 + .by  $00 $00 $00 $00 $00 $00 $00 $00  $00 $00 $00 $00 $00 $00 $00 $00  $00 $00 $80 $00 $00 $00 $00 $00
  8697 9AB1 00 00 00 00 00 00 + .by  $00 $00 $00 $00 $00 $00 $00 $00  $00 $00 $00 $00 $00 $00 $00 $00  $00 $00 $00 $00 $00 $00 $00 $00
  8698 9AC9 00 00 00 00 00 00 + .by  $00 $00 $00 $00 $00 $00 $00 $00  $00 $00 $00 $00 $00 $00 $00 $00  $00 $00 $00 $00 $00 $00 $00 $00
  8699 9AE1 00 00 00 00 00 00 + .by  $00 $00 $00 $00 $00 $00 $00 $00  $00 $00 $80 $00 $00 $00 $00 $00  $00 $00 $00 $00 $00 $00 $00 $00
  8700 9AF9 00 00 00 00 00 00 + .by  $00 $00 $00 $00 $00 $00 $00 $00  $00 $00 $00 $00 $00 $00 $00 $00  $00 $00 $00 $00 $00 $00 $00 $00
  8701 9B11 00 00 00 00 00 00 + .by  $00 $00 $00 $00 $00 $00 $00 $00  $00 $00 $00 $00 $00 $00 $00 $00  $00 $00 $00 $00 $00 $00 $00 $00
  8702 9B29 00 00 80 00 00 00 + .by  $00 $00 $80 $00 $00 $00 $00 $00  $00 $00 $00 $00 $00 $00 $00 $00  $00 $00 $00 $00 $00 $00 $00 $00
  8703 9B41 00 00 00 00 00 00 + .by  $00 $00 $00 $00 $00 $00 $00 $00  $00 $00 $00 $00 $00 $00 $00 $00  $00 $00 $00 $00 $00 $00 $00 $00
  8704 9B59 00 00 00 00 00 00 + .by  $00 $00 $00 $00 $00 $00 $00 $00  $00 $00 $00 $00 $00 $00 $00 $00  $00 $00 $80 $00 $00 $00 $00 $00
  8705 9B71 00 00 00 00 00 00 + .by  $00 $00 $00 $00 $00 $00 $00 $00  $00 $00 $00 $00 $00 $00 $00 $00  $00 $00 $00 $00 $00 $00 $00 $00
  8706 9B89 00 00 00 00 00 00 + .by  $00 $00 $00 $00 $00 $00 $00 $00  $00 $00 $00 $00 $00 $00 $00 $00  $00 $00 $00 $00 $00 $00 $00 $00
  8707 9BA1 00 00 00 00 00 00 + .by  $00 $00 $00 $00 $00 $00 $00 $00  $00 $00 $80 $00 $00 $00 $00 $00  $00 $00 $00 $00 $00 $00 $00 $00
  8708 9BB9 00 00 00 00 00 00 + .by  $00 $00 $00 $00 $00 $00 $00 $00  $00 $00 $00 $00 $00 $00 $00 $00  $00 $00 $00 $00 $00 $00 $00 $00
  8709 9BD1 00 00 00 00 00 00 + .by  $00 $00 $00 $00 $00 $00 $00 $00  $00 $00 $00 $00 $00 $00 $00 $00  $00 $00 $00 $00 $00 $00 $00 $00
  8710 9BE9 00 00 80 00 00 00 + .by  $00 $00 $80 $00 $00 $00 $00 $00  $00 $00 $00 $00 $00 $00 $00 $00  $00 $00 $01
  8711
  8712 = 5E1B			VARINITSIZE	= *-DATAORIGIN
  8713 = 5EE9			VARDATASIZE	= 24297
  8714
  8715 = 9CCA			PROGRAMSTACK	= DATAORIGIN+VARDATASIZE
  8716
  8717 					.print 'DATA: ',DATAORIGIN,'..',PROGRAMSTACK
  8717 				DATA: $3DE1..$9CCA
  8718
  8719 					ert DATAORIGIN<@end,'DATA memory overlap'
  8720
  8721 				; ------------------------------------------------------------
  8722
  8723 				.macro	STATICDATA
  8724 				.by  $04 $54 $52 $55 $45 $05 $46 $41  $4C $53 $45 $00 $12 $75 $6E $69  $74 $73 $5C $6A $6F $79 $73 $74
  8725 				.by  $69 $63 $6B $2E $70 $61 $73 $03  $20 $00 $00 $03 $A4 $00 $00 $03  $AF $00 $00 $03 $B9 $00 $00 $03
  8726 				.by  $A2 $00 $00 $03 $12 $B8 $92 $03  $12 $B7 $92 $03 $12 $A3 $92 $03  $12 $20 $92 $08 $46 $31 $2D $54
  8727 				.by  $72 $61 $69 $6E $0E $46 $32 $2D  $53 $61 $76 $65 $20 $70 $61 $72  $61 $6D $73 $0E $46 $33 $2D $4C
  8728 				.by  $6F $61 $64 $20 $70 $61 $72 $61  $6D $73 $0F $46 $34 $2D $43 $6C  $65 $61 $72 $20 $43 $61 $6E $76
  8729 				.by  $61 $73 $07 $46 $35 $2D $44 $72  $61 $77 $0D $50 $72 $65 $73 $73  $20 $61 $6E $79 $20 $6B $65 $79
  8730 				.by  $07 $74 $6F $20 $73 $74 $6F $70  $0B $46 $31 $2D $4A $6F $79 $73  $74 $69 $63 $6B $0C $46 $32 $2D
  8731 				.by  $4C $69 $67 $68 $74 $20 $70 $65  $6E $0A $46 $35 $2D $50 $72 $65  $64 $69 $63 $74 $09 $40 $30 $3A
  8732 				.by  $57 $48 $2C $55 $2C $57 $09 $40  $30 $3A $57 $4F $2C $55 $2C $57  $09 $40 $30 $3A $42 $48 $2C $55
  8733 				.by  $2C $57 $09 $40 $30 $3A $42 $4F  $2C $55 $2C $57 $06 $57 $48 $2C  $55 $2C $52 $06 $57 $4F $2C $55
  8734 				.by  $2C $52 $06 $42 $48 $2C $55 $2C  $52 $06 $42 $4F $2C $55 $2C $52  $0E $42 $41 $43 $4B $47 $52 $4F
  8735 				.by  $55 $4E $44 $2C $53 $2C $52 $14  $49 $6E $70 $75 $74 $20 $6D $6F  $64 $65 $3A $20 $4A $6F $79 $73
  8736 				.by  $74 $69 $63 $6B $15 $49 $6E $70  $75 $74 $20 $6D $6F $64 $65 $3A  $20 $4C $69 $67 $68 $74 $20 $70
  8737 				.by  $65 $6E $13 $45 $78 $69 $74 $20  $64 $72 $61 $77 $69 $6E $67 $3F  $20 $28 $59 $2F $4E $29 $14 $49
  8738 				.by  $20 $74 $68 $69 $6E $6B $20 $79  $6F $75 $20 $77 $72 $6F $74 $65  $20 $61 $20 $11 $41 $6D $20 $49
  8739 				.by  $20 $72 $69 $67 $68 $74 $3F $20  $28 $59 $2F $4E $29 $18 $45 $6E  $74 $65 $72 $20 $74 $68 $65 $20
  8740 				.by  $63 $6F $72 $72 $65 $63 $74 $20  $64 $69 $67 $69 $74 $3A $14 $41  $64 $6A $75 $73 $74 $69 $6E $67
  8741 				.by  $20 $77 $65 $69 $67 $68 $74 $73  $2E $2E $2E $1A $49 $74 $20 $77  $69 $6C $6C $20 $74 $61 $6B $65
  8742 				.by  $20 $61 $20 $6C $6F $74 $20 $6F  $66 $20 $74 $69 $6D $65 $11 $4D  $61 $6B $65 $20 $61 $20 $63 $75
  8743 				.by  $70 $20 $6F $66 $20 $74 $65 $61  $0F $50 $75 $74 $20 $61 $20 $72  $65 $63 $6F $72 $64 $20 $6F $6E
  8744 				.by  $06 $4E $45 $55 $52 $41 $4C $04  $2C $55 $2C $52 $14 $53 $74 $6F  $70 $20 $74 $72 $61 $69 $6E $69
  8745 				.by  $6E $67 $3F $20 $28 $59 $2F $4E  $29 $12 $52 $65 $63 $6F $72 $64  $73 $20 $72 $65 $6D $61 $69 $6E
  8746 				.by  $69 $6E $67 $3A $09 $41 $63 $63  $75 $72 $61 $63 $79 $3D $10 $54  $72 $61 $69 $6E $69 $6E $67 $20
  8747 				.by  $73 $74 $6F $70 $70 $65 $64 $13  $41 $72 $65 $20 $79 $6F $75 $20  $73 $75 $72 $65 $3F $20 $28 $59
  8748 				.by  $2F $4E $29 $14 $53 $61 $76 $69  $6E $67 $20 $70 $61 $72 $61 $6D  $65 $74 $65 $72 $73 $2E $2E $2E
  8749 				.by  $07 $2E $2E $2E $64 $6F $6E $65  $15 $4C $6F $61 $64 $69 $6E $67  $20 $70 $61 $72 $61 $6D $65 $74
  8750 				.by  $65 $72 $73 $2E $2E $2E $1F $09  $23 $09 $27 $09 $2B $09 $2F $09  $33 $09 $37 $09 $3B $09 $3F $09
  8751 				.by  $43 $09 $4C $09 $5B $09 $6A $09  $7A $09 $82 $09 $90 $09 $0B $09  $0B $09 $0B $09 $98 $09 $A4 $09
  8752 				.by  $0B $09 $0B $09 $B1 $09
  8753 				.endm
  8754
  8755 					end
